ARM GAS  C:\Users\egh35\AppData\Local\Temp\cczkDcQW.s 			page 1


   1              		.cpu cortex-m0
   2              		.fpu softvfp
   3              		.eabi_attribute 20, 1
   4              		.eabi_attribute 21, 1
   5              		.eabi_attribute 23, 3
   6              		.eabi_attribute 24, 1
   7              		.eabi_attribute 25, 1
   8              		.eabi_attribute 26, 1
   9              		.eabi_attribute 30, 1
  10              		.eabi_attribute 34, 0
  11              		.eabi_attribute 18, 4
  12              		.code	16
  13              		.file	"main.c"
  14              		.text
  15              	.Ltext0:
  16              		.cfi_sections	.debug_frame
  17              		.section	.text.UART_Int,"ax",%progbits
  18              		.align	2
  19              		.global	UART_Int
  20              		.code	16
  21              		.thumb_func
  22              		.type	UART_Int, %function
  23              	UART_Int:
  24              	.LFB36:
  25              		.file 1 ".\\main.c"
   1:.\main.c      **** /* ========================================
   2:.\main.c      ****  *
   3:.\main.c      ****  * Copyright YOUR COMPANY, THE YEAR
   4:.\main.c      ****  * All Rights Reserved
   5:.\main.c      ****  * UNPUBLISHED, LICENSED SOFTWARE.
   6:.\main.c      ****  *
   7:.\main.c      ****  * CONFIDENTIAL AND PROPRIETARY INFORMATION
   8:.\main.c      ****  * WHICH IS THE PROPERTY OF your company.
   9:.\main.c      ****  *
  10:.\main.c      ****  * ========================================
  11:.\main.c      **** */
  12:.\main.c      **** #include <project.h>
  13:.\main.c      **** #include <stdio.h>
  14:.\main.c      **** #include <time.h>
  15:.\main.c      **** 
  16:.\main.c      **** 
  17:.\main.c      **** 
  18:.\main.c      **** 
  19:.\main.c      **** 
  20:.\main.c      **** #define MATRIX_SIZE 5
  21:.\main.c      **** float tc;
  22:.\main.c      **** float elapsedTime;
  23:.\main.c      **** float elapsed1, elapsed2, lead, trail;
  24:.\main.c      **** 
  25:.\main.c      **** 
  26:.\main.c      **** 
  27:.\main.c      **** void PrintInt(int b){
  28:.\main.c      ****     char buf[10];
  29:.\main.c      ****     sprintf(buf, "%d", b); 
  30:.\main.c      ****     UART_1_UartPutString(buf);
  31:.\main.c      **** 
  32:.\main.c      **** }
ARM GAS  C:\Users\egh35\AppData\Local\Temp\cczkDcQW.s 			page 2


  33:.\main.c      **** 
  34:.\main.c      **** void matrixMult(float A[MATRIX_SIZE][MATRIX_SIZE], \
  35:.\main.c      **** float B[MATRIX_SIZE][MATRIX_SIZE], \
  36:.\main.c      **** float C[MATRIX_SIZE][MATRIX_SIZE])
  37:.\main.c      **** {
  38:.\main.c      **** int8 i, j, k;
  39:.\main.c      **** float temp;
  40:.\main.c      **** for(i = 0; i < MATRIX_SIZE; i++){
  41:.\main.c      **** for(j = 0; j < MATRIX_SIZE; j++){
  42:.\main.c      **** temp = 0.0;
  43:.\main.c      **** for(k = 0; k < MATRIX_SIZE; k++){
  44:.\main.c      **** temp += A[i][k] * B[k][j];
  45:.\main.c      **** }
  46:.\main.c      **** C[i][j] = temp;
  47:.\main.c      **** }
  48:.\main.c      **** }
  49:.\main.c      **** }
  50:.\main.c      **** 
  51:.\main.c      **** void populateMatrix(float M[MATRIX_SIZE][MATRIX_SIZE])
  52:.\main.c      **** {
  53:.\main.c      **** int8 i, j;
  54:.\main.c      **** for(i = 0; i < MATRIX_SIZE; i++){
  55:.\main.c      **** for(j = 0; j < MATRIX_SIZE; j++){
  56:.\main.c      **** M[i][j] = (float)rand()/(float)2147483647;
  57:.\main.c      **** }
  58:.\main.c      **** }
  59:.\main.c      **** }
  60:.\main.c      **** 
  61:.\main.c      **** 
  62:.\main.c      **** 
  63:.\main.c      **** 
  64:.\main.c      **** 
  65:.\main.c      **** CY_ISR(UART_Int) /* ISR to handle UART interrupts. */
  66:.\main.c      **** {
  26              		.loc 1 66 0
  27              		.cfi_startproc
  67:.\main.c      **** /* Your ISR code. */
  68:.\main.c      **** /* Clear the interrupt. */
  69:.\main.c      **** UART_1_ClearRxInterruptSource(UART_1_GetRxInterruptSource());
  28              		.loc 1 69 0
  29 0000 014B     		ldr	r3, .L2
  30 0002 1A68     		ldr	r2, [r3]
  31 0004 1A60     		str	r2, [r3]
  70:.\main.c      **** }
  32              		.loc 1 70 0
  33              		@ sp needed
  34 0006 7047     		bx	lr
  35              	.L3:
  36              		.align	2
  37              	.L2:
  38 0008 C00F0740 		.word	1074204608
  39              		.cfi_endproc
  40              	.LFE36:
  41              		.size	UART_Int, .-UART_Int
  42              		.global	__aeabi_fadd
  43              		.section	.text.timerISR,"ax",%progbits
  44              		.align	2
ARM GAS  C:\Users\egh35\AppData\Local\Temp\cczkDcQW.s 			page 3


  45              		.global	timerISR
  46              		.code	16
  47              		.thumb_func
  48              		.type	timerISR, %function
  49              	timerISR:
  50              	.LFB37:
  71:.\main.c      **** 
  72:.\main.c      **** 
  73:.\main.c      **** 
  74:.\main.c      **** CY_ISR(timerISR) /* ISR to handle tc interrupts from timer. */
  75:.\main.c      **** {
  51              		.loc 1 75 0
  52              		.cfi_startproc
  53 0000 10B5     		push	{r4, lr}
  54              		.cfi_def_cfa_offset 8
  55              		.cfi_offset 4, -8
  56              		.cfi_offset 14, -4
  76:.\main.c      **** tc = tc + 1;
  57              		.loc 1 76 0
  58 0002 054C     		ldr	r4, .L5
  59 0004 2068     		ldr	r0, [r4]
  60 0006 FE21     		mov	r1, #254
  61 0008 8905     		lsl	r1, r1, #22
  62 000a FFF7FEFF 		bl	__aeabi_fadd
  63              	.LVL0:
  64 000e 2060     		str	r0, [r4]
  77:.\main.c      **** /* Your ISR code. */
  78:.\main.c      **** /* Reset the interrupt. */
  79:.\main.c      **** Timer_1_ReadStatusRegister();
  65              		.loc 1 79 0
  66 0010 FFF7FEFF 		bl	Timer_1_ReadStatusRegister
  67              	.LVL1:
  80:.\main.c      **** }
  68              		.loc 1 80 0
  69              		@ sp needed
  70 0014 10BD     		pop	{r4, pc}
  71              	.L6:
  72 0016 C046     		.align	2
  73              	.L5:
  74 0018 00000000 		.word	tc
  75              		.cfi_endproc
  76              	.LFE37:
  77              		.size	timerISR, .-timerISR
  78              		.section	.text.PrintInt,"ax",%progbits
  79              		.align	2
  80              		.global	PrintInt
  81              		.code	16
  82              		.thumb_func
  83              		.type	PrintInt, %function
  84              	PrintInt:
  85              	.LFB33:
  27:.\main.c      **** void PrintInt(int b){
  86              		.loc 1 27 0
  87              		.cfi_startproc
  88              	.LVL2:
  89 0000 00B5     		push	{lr}
  90              		.cfi_def_cfa_offset 4
ARM GAS  C:\Users\egh35\AppData\Local\Temp\cczkDcQW.s 			page 4


  91              		.cfi_offset 14, -4
  92 0002 85B0     		sub	sp, sp, #20
  93              		.cfi_def_cfa_offset 24
  94 0004 021C     		mov	r2, r0
  29:.\main.c      ****     sprintf(buf, "%d", b); 
  95              		.loc 1 29 0
  96 0006 01A8     		add	r0, sp, #4
  97              	.LVL3:
  98 0008 0349     		ldr	r1, .L8
  99 000a FFF7FEFF 		bl	sprintf
 100              	.LVL4:
  30:.\main.c      ****     UART_1_UartPutString(buf);
 101              		.loc 1 30 0
 102 000e 01A8     		add	r0, sp, #4
 103 0010 FFF7FEFF 		bl	UART_1_UartPutString
 104              	.LVL5:
  32:.\main.c      **** }
 105              		.loc 1 32 0
 106 0014 05B0     		add	sp, sp, #20
 107              		@ sp needed
 108 0016 00BD     		pop	{pc}
 109              	.L9:
 110              		.align	2
 111              	.L8:
 112 0018 00000000 		.word	.LC1
 113              		.cfi_endproc
 114              	.LFE33:
 115              		.size	PrintInt, .-PrintInt
 116              		.global	__aeabi_fmul
 117              		.section	.text.matrixMult,"ax",%progbits
 118              		.align	2
 119              		.global	matrixMult
 120              		.code	16
 121              		.thumb_func
 122              		.type	matrixMult, %function
 123              	matrixMult:
 124              	.LFB34:
  37:.\main.c      **** {
 125              		.loc 1 37 0
 126              		.cfi_startproc
 127              	.LVL6:
 128 0000 F0B5     		push	{r4, r5, r6, r7, lr}
 129              		.cfi_def_cfa_offset 20
 130              		.cfi_offset 4, -20
 131              		.cfi_offset 5, -16
 132              		.cfi_offset 6, -12
 133              		.cfi_offset 7, -8
 134              		.cfi_offset 14, -4
 135 0002 5F46     		mov	r7, fp
 136 0004 5646     		mov	r6, r10
 137 0006 4D46     		mov	r5, r9
 138 0008 4446     		mov	r4, r8
 139 000a F0B4     		push	{r4, r5, r6, r7}
 140              		.cfi_def_cfa_offset 36
 141              		.cfi_offset 8, -36
 142              		.cfi_offset 9, -32
 143              		.cfi_offset 10, -28
ARM GAS  C:\Users\egh35\AppData\Local\Temp\cczkDcQW.s 			page 5


 144              		.cfi_offset 11, -24
 145 000c 83B0     		sub	sp, sp, #12
 146              		.cfi_def_cfa_offset 48
 147 000e 8246     		mov	r10, r0
 148 0010 8946     		mov	r9, r1
 149 0012 0092     		str	r2, [sp]
 150              	.LVL7:
  40:.\main.c      **** for(i = 0; i < MATRIX_SIZE; i++){
 151              		.loc 1 40 0
 152 0014 0021     		mov	r1, #0
 153              	.LVL8:
 154 0016 0191     		str	r1, [sp, #4]
 155 0018 8B46     		mov	fp, r1
 156 001a 3CE0     		b	.L11
 157              	.LVL9:
 158              	.L12:
  44:.\main.c      **** temp += A[i][k] * B[k][j];
 159              		.loc 1 44 0 discriminator 2
 160 001c 5346     		mov	r3, r10
 161 001e F918     		add	r1, r7, r3
 162 0020 63B2     		sxtb	r3, r4
 163 0022 9A00     		lsl	r2, r3, #2
 164 0024 5058     		ldr	r0, [r2, r1]
 165 0026 D318     		add	r3, r2, r3
 166 0028 9B00     		lsl	r3, r3, #2
 167 002a F318     		add	r3, r6, r3
 168 002c 4A46     		mov	r2, r9
 169 002e D158     		ldr	r1, [r2, r3]
 170 0030 FFF7FEFF 		bl	__aeabi_fmul
 171              	.LVL10:
 172 0034 011C     		add	r1, r0, #0
 173 0036 281C     		add	r0, r5, #0
 174 0038 FFF7FEFF 		bl	__aeabi_fadd
 175              	.LVL11:
 176 003c 051C     		add	r5, r0, #0
 177              	.LVL12:
  43:.\main.c      **** for(k = 0; k < MATRIX_SIZE; k++){
 178              		.loc 1 43 0 discriminator 2
 179 003e 0134     		add	r4, r4, #1
 180              	.LVL13:
 181 0040 E4B2     		uxtb	r4, r4
 182              	.LVL14:
 183 0042 09E0     		b	.L13
 184              	.LVL15:
 185              	.L15:
 186 0044 0025     		mov	r5, #0
 187 0046 5C46     		mov	r4, fp
  44:.\main.c      **** temp += A[i][k] * B[k][j];
 188              		.loc 1 44 0
 189 0048 4346     		mov	r3, r8
 190 004a 5FB2     		sxtb	r7, r3
 191 004c BF00     		lsl	r7, r7, #2
 192 004e 331C     		mov	r3, r6
 193 0050 4E46     		mov	r6, r9
 194 0052 B946     		mov	r9, r7
 195              	.LVL16:
 196 0054 5746     		mov	r7, r10
ARM GAS  C:\Users\egh35\AppData\Local\Temp\cczkDcQW.s 			page 6


 197 0056 9A46     		mov	r10, r3
 198              	.LVL17:
 199              	.L13:
  43:.\main.c      **** for(k = 0; k < MATRIX_SIZE; k++){
 200              		.loc 1 43 0 discriminator 1
 201 0058 63B2     		sxtb	r3, r4
 202 005a 042B     		cmp	r3, #4
 203 005c DEDD     		ble	.L12
 204 005e B146     		mov	r9, r6
 205 0060 5646     		mov	r6, r10
 206              	.LVL18:
 207 0062 BA46     		mov	r10, r7
  46:.\main.c      **** C[i][j] = temp;
 208              		.loc 1 46 0
 209 0064 0099     		ldr	r1, [sp]
 210 0066 8B19     		add	r3, r1, r6
 211 0068 4146     		mov	r1, r8
 212 006a 4AB2     		sxtb	r2, r1
 213 006c 9200     		lsl	r2, r2, #2
 214 006e D550     		str	r5, [r2, r3]
  41:.\main.c      **** for(j = 0; j < MATRIX_SIZE; j++){
 215              		.loc 1 41 0
 216 0070 4346     		mov	r3, r8
 217 0072 0133     		add	r3, r3, #1
 218 0074 DBB2     		uxtb	r3, r3
 219 0076 9846     		mov	r8, r3
 220              	.LVL19:
 221 0078 05E0     		b	.L14
 222              	.LVL20:
 223              	.L16:
 224 007a D846     		mov	r8, fp
  44:.\main.c      **** temp += A[i][k] * B[k][j];
 225              		.loc 1 44 0
 226 007c 019A     		ldr	r2, [sp, #4]
 227 007e 53B2     		sxtb	r3, r2
 228 0080 9E00     		lsl	r6, r3, #2
 229 0082 F618     		add	r6, r6, r3
 230 0084 B600     		lsl	r6, r6, #2
 231              	.L14:
 232              	.LVL21:
  41:.\main.c      **** for(j = 0; j < MATRIX_SIZE; j++){
 233              		.loc 1 41 0 discriminator 1
 234 0086 4146     		mov	r1, r8
 235 0088 4BB2     		sxtb	r3, r1
 236 008a 042B     		cmp	r3, #4
 237 008c DADD     		ble	.L15
  40:.\main.c      **** for(i = 0; i < MATRIX_SIZE; i++){
 238              		.loc 1 40 0
 239 008e 019B     		ldr	r3, [sp, #4]
 240 0090 0133     		add	r3, r3, #1
 241 0092 DBB2     		uxtb	r3, r3
 242 0094 0193     		str	r3, [sp, #4]
 243              	.LVL22:
 244              	.L11:
  40:.\main.c      **** for(i = 0; i < MATRIX_SIZE; i++){
 245              		.loc 1 40 0 is_stmt 0 discriminator 1
 246 0096 019A     		ldr	r2, [sp, #4]
ARM GAS  C:\Users\egh35\AppData\Local\Temp\cczkDcQW.s 			page 7


 247 0098 53B2     		sxtb	r3, r2
 248 009a 042B     		cmp	r3, #4
 249 009c EDDD     		ble	.L16
  49:.\main.c      **** }
 250              		.loc 1 49 0 is_stmt 1
 251 009e 03B0     		add	sp, sp, #12
 252              	.LVL23:
 253              		@ sp needed
 254              	.LVL24:
 255              	.LVL25:
 256 00a0 3CBC     		pop	{r2, r3, r4, r5}
 257 00a2 9046     		mov	r8, r2
 258 00a4 9946     		mov	r9, r3
 259 00a6 A246     		mov	r10, r4
 260 00a8 AB46     		mov	fp, r5
 261 00aa F0BD     		pop	{r4, r5, r6, r7, pc}
 262              		.cfi_endproc
 263              	.LFE34:
 264              		.size	matrixMult, .-matrixMult
 265              		.global	__aeabi_i2f
 266              		.section	.text.populateMatrix,"ax",%progbits
 267              		.align	2
 268              		.global	populateMatrix
 269              		.code	16
 270              		.thumb_func
 271              		.type	populateMatrix, %function
 272              	populateMatrix:
 273              	.LFB35:
  52:.\main.c      **** {
 274              		.loc 1 52 0
 275              		.cfi_startproc
 276              	.LVL26:
 277 0000 F8B5     		push	{r3, r4, r5, r6, r7, lr}
 278              		.cfi_def_cfa_offset 24
 279              		.cfi_offset 3, -24
 280              		.cfi_offset 4, -20
 281              		.cfi_offset 5, -16
 282              		.cfi_offset 6, -12
 283              		.cfi_offset 7, -8
 284              		.cfi_offset 14, -4
 285 0002 5F46     		mov	r7, fp
 286 0004 5646     		mov	r6, r10
 287 0006 4D46     		mov	r5, r9
 288 0008 4446     		mov	r4, r8
 289 000a F0B4     		push	{r4, r5, r6, r7}
 290              		.cfi_def_cfa_offset 40
 291              		.cfi_offset 8, -40
 292              		.cfi_offset 9, -36
 293              		.cfi_offset 10, -32
 294              		.cfi_offset 11, -28
 295 000c 8046     		mov	r8, r0
 296              	.LVL27:
  54:.\main.c      **** for(i = 0; i < MATRIX_SIZE; i++){
 297              		.loc 1 54 0
 298 000e 0022     		mov	r2, #0
 299 0010 9146     		mov	r9, r2
 300 0012 9246     		mov	r10, r2
ARM GAS  C:\Users\egh35\AppData\Local\Temp\cczkDcQW.s 			page 8


 301              	.LBB2:
  56:.\main.c      **** M[i][j] = (float)rand()/(float)2147483647;
 302              		.loc 1 56 0
 303 0014 C027     		mov	r7, #192
 304 0016 BF05     		lsl	r7, r7, #22
 305              	.LBE2:
  54:.\main.c      **** for(i = 0; i < MATRIX_SIZE; i++){
 306              		.loc 1 54 0
 307 0018 1DE0     		b	.L18
 308              	.LVL28:
 309              	.L19:
 310              	.LBB3:
  56:.\main.c      **** M[i][j] = (float)rand()/(float)2147483647;
 311              		.loc 1 56 0 discriminator 2
 312 001a 4246     		mov	r2, r8
 313 001c 9519     		add	r5, r2, r6
 314 001e 63B2     		sxtb	r3, r4
 315 0020 9B46     		mov	fp, r3
 316 0022 FFF7FEFF 		bl	rand
 317              	.LVL29:
 318 0026 FFF7FEFF 		bl	__aeabi_i2f
 319              	.LVL30:
 320 002a 391C     		add	r1, r7, #0
 321 002c FFF7FEFF 		bl	__aeabi_fmul
 322              	.LVL31:
 323 0030 5A46     		mov	r2, fp
 324 0032 9300     		lsl	r3, r2, #2
 325 0034 5851     		str	r0, [r3, r5]
 326              	.LBE3:
  55:.\main.c      **** for(j = 0; j < MATRIX_SIZE; j++){
 327              		.loc 1 55 0 discriminator 2
 328 0036 0134     		add	r4, r4, #1
 329              	.LVL32:
 330 0038 E4B2     		uxtb	r4, r4
 331              	.LVL33:
 332 003a 05E0     		b	.L20
 333              	.LVL34:
 334              	.L21:
 335 003c 5446     		mov	r4, r10
 336              	.LBB4:
  56:.\main.c      **** M[i][j] = (float)rand()/(float)2147483647;
 337              		.loc 1 56 0
 338 003e 4A46     		mov	r2, r9
 339 0040 53B2     		sxtb	r3, r2
 340 0042 9E00     		lsl	r6, r3, #2
 341 0044 F618     		add	r6, r6, r3
 342 0046 B600     		lsl	r6, r6, #2
 343              	.L20:
 344              	.LVL35:
 345              	.LBE4:
  55:.\main.c      **** for(j = 0; j < MATRIX_SIZE; j++){
 346              		.loc 1 55 0 discriminator 1
 347 0048 63B2     		sxtb	r3, r4
 348 004a 042B     		cmp	r3, #4
 349 004c E5DD     		ble	.L19
  54:.\main.c      **** for(i = 0; i < MATRIX_SIZE; i++){
 350              		.loc 1 54 0
ARM GAS  C:\Users\egh35\AppData\Local\Temp\cczkDcQW.s 			page 9


 351 004e 4B46     		mov	r3, r9
 352 0050 0133     		add	r3, r3, #1
 353 0052 DBB2     		uxtb	r3, r3
 354 0054 9946     		mov	r9, r3
 355              	.LVL36:
 356              	.L18:
  54:.\main.c      **** for(i = 0; i < MATRIX_SIZE; i++){
 357              		.loc 1 54 0 is_stmt 0 discriminator 1
 358 0056 4A46     		mov	r2, r9
 359 0058 53B2     		sxtb	r3, r2
 360 005a 042B     		cmp	r3, #4
 361 005c EEDD     		ble	.L21
  59:.\main.c      **** }
 362              		.loc 1 59 0 is_stmt 1
 363              		@ sp needed
 364              	.LVL37:
 365              	.LVL38:
 366 005e 3CBC     		pop	{r2, r3, r4, r5}
 367 0060 9046     		mov	r8, r2
 368 0062 9946     		mov	r9, r3
 369 0064 A246     		mov	r10, r4
 370 0066 AB46     		mov	fp, r5
 371 0068 F8BD     		pop	{r3, r4, r5, r6, r7, pc}
 372              		.cfi_endproc
 373              	.LFE35:
 374              		.size	populateMatrix, .-populateMatrix
 375              		.global	__aeabi_uidiv
 376              		.global	__aeabi_ui2f
 377 006a C046     		.section	.text.tic,"ax",%progbits
 378              		.align	2
 379              		.global	tic
 380              		.code	16
 381              		.thumb_func
 382              		.type	tic, %function
 383              	tic:
 384              	.LFB38:
  81:.\main.c      **** 
  82:.\main.c      **** 
  83:.\main.c      **** void tic(void)
  84:.\main.c      **** {
 385              		.loc 1 84 0
 386              		.cfi_startproc
 387 0000 08B5     		push	{r3, lr}
 388              		.cfi_def_cfa_offset 8
 389              		.cfi_offset 3, -8
 390              		.cfi_offset 14, -4
  85:.\main.c      **** lead =  ( 24000 - Timer_1_ReadCounter() )/24000000; 
 391              		.loc 1 85 0
 392 0002 FFF7FEFF 		bl	Timer_1_ReadCounter
 393              	.LVL39:
 394 0006 074B     		ldr	r3, .L23
 395 0008 181A     		sub	r0, r3, r0
 396 000a 0749     		ldr	r1, .L23+4
 397 000c FFF7FEFF 		bl	__aeabi_uidiv
 398              	.LVL40:
 399 0010 FFF7FEFF 		bl	__aeabi_ui2f
 400              	.LVL41:
ARM GAS  C:\Users\egh35\AppData\Local\Temp\cczkDcQW.s 			page 10


 401 0014 054B     		ldr	r3, .L23+8
 402 0016 1860     		str	r0, [r3]
  86:.\main.c      **** elapsed1 = tc;     
 403              		.loc 1 86 0
 404 0018 054B     		ldr	r3, .L23+12
 405 001a 1A68     		ldr	r2, [r3]
 406 001c 054B     		ldr	r3, .L23+16
 407 001e 1A60     		str	r2, [r3]
  87:.\main.c      ****     
  88:.\main.c      **** /* Your code. */
  89:.\main.c      **** }
 408              		.loc 1 89 0
 409              		@ sp needed
 410 0020 08BD     		pop	{r3, pc}
 411              	.L24:
 412 0022 C046     		.align	2
 413              	.L23:
 414 0024 C05D0000 		.word	24000
 415 0028 00366E01 		.word	24000000
 416 002c 00000000 		.word	lead
 417 0030 00000000 		.word	tc
 418 0034 00000000 		.word	elapsed1
 419              		.cfi_endproc
 420              	.LFE38:
 421              		.size	tic, .-tic
 422              		.section	.text.toc,"ax",%progbits
 423              		.align	2
 424              		.global	toc
 425              		.code	16
 426              		.thumb_func
 427              		.type	toc, %function
 428              	toc:
 429              	.LFB39:
  90:.\main.c      **** 
  91:.\main.c      **** 
  92:.\main.c      **** void toc(void)
  93:.\main.c      **** {
 430              		.loc 1 93 0
 431              		.cfi_startproc
 432 0000 08B5     		push	{r3, lr}
 433              		.cfi_def_cfa_offset 8
 434              		.cfi_offset 3, -8
 435              		.cfi_offset 14, -4
  94:.\main.c      **** trail =  (Timer_1_ReadCounter())/24000000;
 436              		.loc 1 94 0
 437 0002 FFF7FEFF 		bl	Timer_1_ReadCounter
 438              	.LVL42:
 439 0006 0649     		ldr	r1, .L26
 440 0008 FFF7FEFF 		bl	__aeabi_uidiv
 441              	.LVL43:
 442 000c FFF7FEFF 		bl	__aeabi_ui2f
 443              	.LVL44:
 444 0010 044B     		ldr	r3, .L26+4
 445 0012 1860     		str	r0, [r3]
  95:.\main.c      **** elapsed2 = tc;
 446              		.loc 1 95 0
 447 0014 044B     		ldr	r3, .L26+8
ARM GAS  C:\Users\egh35\AppData\Local\Temp\cczkDcQW.s 			page 11


 448 0016 1A68     		ldr	r2, [r3]
 449 0018 044B     		ldr	r3, .L26+12
 450 001a 1A60     		str	r2, [r3]
  96:.\main.c      **** /* Your code. */
  97:.\main.c      **** }
 451              		.loc 1 97 0
 452              		@ sp needed
 453 001c 08BD     		pop	{r3, pc}
 454              	.L27:
 455 001e C046     		.align	2
 456              	.L26:
 457 0020 00366E01 		.word	24000000
 458 0024 00000000 		.word	trail
 459 0028 00000000 		.word	tc
 460 002c 00000000 		.word	elapsed2
 461              		.cfi_endproc
 462              	.LFE39:
 463              		.size	toc, .-toc
 464              		.global	__aeabi_fsub
 465              		.global	__aeabi_f2iz
 466              		.section	.text.main,"ax",%progbits
 467              		.align	2
 468              		.global	main
 469              		.code	16
 470              		.thumb_func
 471              		.type	main, %function
 472              	main:
 473              	.LFB40:
  98:.\main.c      **** 
  99:.\main.c      **** 
 100:.\main.c      **** 
 101:.\main.c      **** int main()
 102:.\main.c      **** {
 474              		.loc 1 102 0
 475              		.cfi_startproc
 476 0000 F0B5     		push	{r4, r5, r6, r7, lr}
 477              		.cfi_def_cfa_offset 20
 478              		.cfi_offset 4, -20
 479              		.cfi_offset 5, -16
 480              		.cfi_offset 6, -12
 481              		.cfi_offset 7, -8
 482              		.cfi_offset 14, -4
 483 0002 CDB0     		sub	sp, sp, #308
 484              		.cfi_def_cfa_offset 328
 103:.\main.c      **** CyGlobalIntDisable; /* Disable global interrupts. */
 485              		.loc 1 103 0
 486              	@ 103 ".\main.c" 1
 487 0004 72B6     		CPSID   i
 488              	@ 0 "" 2
 104:.\main.c      ****     
 105:.\main.c      **** UART_Int_StartEx(UART_Int);
 489              		.loc 1 105 0
 490              		.code	16
 491 0006 2048     		ldr	r0, .L30
 492 0008 FFF7FEFF 		bl	UART_Int_StartEx
 493              	.LVL45:
 106:.\main.c      **** timerISR_StartEx(timerISR);
ARM GAS  C:\Users\egh35\AppData\Local\Temp\cczkDcQW.s 			page 12


 494              		.loc 1 106 0
 495 000c 1F48     		ldr	r0, .L30+4
 496 000e FFF7FEFF 		bl	timerISR_StartEx
 497              	.LVL46:
 107:.\main.c      **** 
 108:.\main.c      **** CyGlobalIntEnable;
 498              		.loc 1 108 0
 499              	@ 108 ".\main.c" 1
 500 0012 62B6     		CPSIE   i
 501              	@ 0 "" 2
 109:.\main.c      **** 
 110:.\main.c      **** UART_1_Start(); /* Start the UART. */
 502              		.loc 1 110 0
 503              		.code	16
 504 0014 FFF7FEFF 		bl	UART_1_Start
 505              	.LVL47:
 111:.\main.c      **** Timer_1_Start(); /* Start timer. */
 506              		.loc 1 111 0
 507 0018 FFF7FEFF 		bl	Timer_1_Start
 508              	.LVL48:
 112:.\main.c      **** srand(rand()); /* Initialize random number generator. */
 509              		.loc 1 112 0
 510 001c FFF7FEFF 		bl	rand
 511              	.LVL49:
 512 0020 FFF7FEFF 		bl	srand
 513              	.LVL50:
 113:.\main.c      **** float A[MATRIX_SIZE][MATRIX_SIZE];
 114:.\main.c      **** float B[MATRIX_SIZE][MATRIX_SIZE];
 115:.\main.c      **** float C[MATRIX_SIZE][MATRIX_SIZE];
 116:.\main.c      **** 
 117:.\main.c      **** for(;;){
 118:.\main.c      ****     populateMatrix(A); /* Populate matrices with random numbers. */
 119:.\main.c      ****     populateMatrix(B);
 120:.\main.c      ****     tic(); /* Time the multiplication operation. */
 121:.\main.c      ****     matrixMult(A, B, C);
 122:.\main.c      ****     toc();
 123:.\main.c      ****     /* Display elapsed time on the terminal. */
 124:.\main.c      ****     CyDelay(1000);
 125:.\main.c      ****     elapsedTime = elapsed2 - elapsed1 + lead + trail; 
 514              		.loc 1 125 0
 515 0024 1A4F     		ldr	r7, .L30+8
 516 0026 1B4E     		ldr	r6, .L30+12
 517 0028 1B4D     		ldr	r5, .L30+16
 518              	.L29:
 118:.\main.c      ****     populateMatrix(A); /* Populate matrices with random numbers. */
 519              		.loc 1 118 0 discriminator 1
 520 002a 33A8     		add	r0, sp, #204
 521 002c FFF7FEFF 		bl	populateMatrix
 522              	.LVL51:
 119:.\main.c      ****     populateMatrix(B);
 523              		.loc 1 119 0 discriminator 1
 524 0030 1AA8     		add	r0, sp, #104
 525 0032 FFF7FEFF 		bl	populateMatrix
 526              	.LVL52:
 120:.\main.c      ****     tic(); /* Time the multiplication operation. */
 527              		.loc 1 120 0 discriminator 1
 528 0036 FFF7FEFF 		bl	tic
ARM GAS  C:\Users\egh35\AppData\Local\Temp\cczkDcQW.s 			page 13


 529              	.LVL53:
 121:.\main.c      ****     matrixMult(A, B, C);
 530              		.loc 1 121 0 discriminator 1
 531 003a 33A8     		add	r0, sp, #204
 532 003c 1AA9     		add	r1, sp, #104
 533 003e 01AA     		add	r2, sp, #4
 534 0040 FFF7FEFF 		bl	matrixMult
 535              	.LVL54:
 122:.\main.c      ****     toc();
 536              		.loc 1 122 0 discriminator 1
 537 0044 FFF7FEFF 		bl	toc
 538              	.LVL55:
 124:.\main.c      ****     CyDelay(1000);
 539              		.loc 1 124 0 discriminator 1
 540 0048 FA20     		mov	r0, #250
 541 004a 8000     		lsl	r0, r0, #2
 542 004c FFF7FEFF 		bl	CyDelay
 543              	.LVL56:
 544              		.loc 1 125 0 discriminator 1
 545 0050 3868     		ldr	r0, [r7]
 546 0052 3168     		ldr	r1, [r6]
 547 0054 FFF7FEFF 		bl	__aeabi_fsub
 548              	.LVL57:
 549 0058 2968     		ldr	r1, [r5]
 550 005a FFF7FEFF 		bl	__aeabi_fadd
 551              	.LVL58:
 552 005e 0F4B     		ldr	r3, .L30+20
 553 0060 1968     		ldr	r1, [r3]
 554 0062 FFF7FEFF 		bl	__aeabi_fadd
 555              	.LVL59:
 556 0066 0E4C     		ldr	r4, .L30+24
 557 0068 2060     		str	r0, [r4]
 126:.\main.c      ****     UART_1_UartPutString("It took ");
 558              		.loc 1 126 0 discriminator 1
 559 006a 0E48     		ldr	r0, .L30+28
 560 006c FFF7FEFF 		bl	UART_1_UartPutString
 561              	.LVL60:
 127:.\main.c      ****     PrintInt(elapsedTime); 
 562              		.loc 1 127 0 discriminator 1
 563 0070 2068     		ldr	r0, [r4]
 564 0072 FFF7FEFF 		bl	__aeabi_f2iz
 565              	.LVL61:
 566 0076 FFF7FEFF 		bl	PrintInt
 567              	.LVL62:
 128:.\main.c      ****     UART_1_UartPutString(" ms ");
 568              		.loc 1 128 0 discriminator 1
 569 007a 0B48     		ldr	r0, .L30+32
 570 007c FFF7FEFF 		bl	UART_1_UartPutString
 571              	.LVL63:
 129:.\main.c      ****     UART_1_UartPutString("\n \r");
 572              		.loc 1 129 0 discriminator 1
 573 0080 0A48     		ldr	r0, .L30+36
 574 0082 FFF7FEFF 		bl	UART_1_UartPutString
 575              	.LVL64:
 576 0086 D0E7     		b	.L29
 577              	.L31:
 578              		.align	2
ARM GAS  C:\Users\egh35\AppData\Local\Temp\cczkDcQW.s 			page 14


 579              	.L30:
 580 0088 00000000 		.word	UART_Int
 581 008c 00000000 		.word	timerISR
 582 0090 00000000 		.word	elapsed2
 583 0094 00000000 		.word	elapsed1
 584 0098 00000000 		.word	lead
 585 009c 00000000 		.word	trail
 586 00a0 00000000 		.word	elapsedTime
 587 00a4 04000000 		.word	.LC16
 588 00a8 10000000 		.word	.LC18
 589 00ac 18000000 		.word	.LC20
 590              		.cfi_endproc
 591              	.LFE40:
 592              		.size	main, .-main
 593              		.comm	trail,4,4
 594              		.comm	lead,4,4
 595              		.comm	elapsed2,4,4
 596              		.comm	elapsed1,4,4
 597              		.comm	elapsedTime,4,4
 598              		.comm	tc,4,4
 599              		.section	.rodata.str1.4,"aMS",%progbits,1
 600              		.align	2
 601              	.LC1:
 602 0000 256400   		.ascii	"%d\000"
 603 0003 00       		.space	1
 604              	.LC16:
 605 0004 49742074 		.ascii	"It took \000"
 605      6F6F6B20 
 605      00
 606 000d 000000   		.space	3
 607              	.LC18:
 608 0010 206D7320 		.ascii	" ms \000"
 608      00
 609 0015 000000   		.space	3
 610              	.LC20:
 611 0018 0A200D00 		.ascii	"\012 \015\000"
 612              		.text
 613              	.Letext0:
 614              		.file 2 "Generated_Source\\PSoC4/cytypes.h"
 615              		.file 3 "Generated_Source\\PSoC4/UART_1_SPI_UART.h"
 616              		.file 4 "Generated_Source\\PSoC4/Timer_1.h"
 617              		.file 5 "Generated_Source\\PSoC4/UART_Int.h"
 618              		.file 6 "Generated_Source\\PSoC4/timerISR.h"
 619              		.file 7 "Generated_Source\\PSoC4/UART_1.h"
 620              		.file 8 "c:\\program files (x86)\\cypress\\psoc creator\\3.2\\psoc creator\\import\\gnu\\arm\\4.8.
 621              		.file 9 "Generated_Source\\PSoC4/CyLib.h"