ARM GAS  C:\Users\egh35\AppData\Local\Temp\cc54Wcia.s 			page 1


   1              		.cpu cortex-m0
   2              		.fpu softvfp
   3              		.eabi_attribute 20, 1
   4              		.eabi_attribute 21, 1
   5              		.eabi_attribute 23, 3
   6              		.eabi_attribute 24, 1
   7              		.eabi_attribute 25, 1
   8              		.eabi_attribute 26, 1
   9              		.eabi_attribute 30, 1
  10              		.eabi_attribute 34, 0
  11              		.eabi_attribute 18, 4
  12              		.code	16
  13              		.file	"main.c"
  14              		.text
  15              	.Ltext0:
  16              		.cfi_sections	.debug_frame
  17              		.section	.text.compareStrings,"ax",%progbits
  18              		.align	2
  19              		.global	compareStrings
  20              		.code	16
  21              		.thumb_func
  22              		.type	compareStrings, %function
  23              	compareStrings:
  24              	.LFB33:
  25              		.file 1 ".\\main.c"
   1:.\main.c      **** /* ========================================
   2:.\main.c      ****  *
   3:.\main.c      ****  * Copyright YOUR COMPANY, THE YEAR
   4:.\main.c      ****  * All Rights Reserved
   5:.\main.c      ****  * UNPUBLISHED, LICENSED SOFTWARE.
   6:.\main.c      ****  *
   7:.\main.c      ****  * CONFIDENTIAL AND PROPRIETARY INFORMATION
   8:.\main.c      ****  * WHICH IS THE PROPERTY OF your company.
   9:.\main.c      ****  *
  10:.\main.c      ****  * ========================================
  11:.\main.c      **** */
  12:.\main.c      **** #include <project.h>
  13:.\main.c      **** #include <stdio.h>
  14:.\main.c      **** 
  15:.\main.c      **** int compareStrings(char *str1, char *str2)
  16:.\main.c      **** {
  26              		.loc 1 16 0
  27              		.cfi_startproc
  28              	.LVL0:
  29 0000 10B5     		push	{r4, lr}
  30              		.cfi_def_cfa_offset 8
  31              		.cfi_offset 4, -8
  32              		.cfi_offset 14, -4
  33              	.LVL1:
  34              	.L4:
  17:.\main.c      ****     char *strpt1 = str1; 
  18:.\main.c      ****     char *strpt2 = str2; 
  19:.\main.c      ****     int Match = 0; 
  20:.\main.c      ****     int countlen_1 =0; 
  21:.\main.c      ****     int countlen_2 =0; 
  22:.\main.c      ****     
  23:.\main.c      ****     for(;;){
ARM GAS  C:\Users\egh35\AppData\Local\Temp\cc54Wcia.s 			page 2


  24:.\main.c      ****         if(*strpt1 != *strpt2){
  35              		.loc 1 24 0
  36 0002 0278     		ldrb	r2, [r0]
  37 0004 0B78     		ldrb	r3, [r1]
  38 0006 9A42     		cmp	r2, r3
  39 0008 04D0     		beq	.L2
  25:.\main.c      ****             UART_1_UartPutString("\n \r Your strings do not match. ");
  40              		.loc 1 25 0
  41 000a 0A48     		ldr	r0, .L6
  42              	.LVL2:
  43 000c FFF7FEFF 		bl	UART_1_UartPutString
  44              	.LVL3:
  19:.\main.c      ****     int Match = 0; 
  45              		.loc 1 19 0
  46 0010 0020     		mov	r0, #0
  26:.\main.c      ****             break; //break loop
  47              		.loc 1 26 0
  48 0012 0DE0     		b	.L3
  49              	.LVL4:
  50              	.L2:
  27:.\main.c      ****         }
  28:.\main.c      ****         strpt1++;
  51              		.loc 1 28 0
  52 0014 0130     		add	r0, r0, #1
  53              	.LVL5:
  29:.\main.c      ****         strpt2++;
  54              		.loc 1 29 0
  55 0016 0131     		add	r1, r1, #1
  56              	.LVL6:
  30:.\main.c      ****         if( *strpt1 == 0 & *strpt2 ==0){
  57              		.loc 1 30 0
  58 0018 0378     		ldrb	r3, [r0]
  59 001a 5A42     		neg	r2, r3
  60 001c 5341     		adc	r3, r3, r2
  61 001e 0A78     		ldrb	r2, [r1]
  62 0020 5442     		neg	r4, r2
  63 0022 6241     		adc	r2, r2, r4
  64 0024 1A42     		tst	r2, r3
  65 0026 ECD0     		beq	.L4
  31:.\main.c      ****             UART_1_UartPutString("\n \r Your strings match. ");
  66              		.loc 1 31 0
  67 0028 0348     		ldr	r0, .L6+4
  68              	.LVL7:
  69 002a FFF7FEFF 		bl	UART_1_UartPutString
  70              	.LVL8:
  32:.\main.c      ****             Match = 1; 
  71              		.loc 1 32 0
  72 002e 0120     		mov	r0, #1
  73              	.LVL9:
  74              	.L3:
  33:.\main.c      ****             break;
  34:.\main.c      ****         }
  35:.\main.c      ****     }
  36:.\main.c      ****     
  37:.\main.c      ****         return Match; 
  38:.\main.c      **** }
  75              		.loc 1 38 0
ARM GAS  C:\Users\egh35\AppData\Local\Temp\cc54Wcia.s 			page 3


  76              		@ sp needed
  77 0030 10BD     		pop	{r4, pc}
  78              	.L7:
  79 0032 C046     		.align	2
  80              	.L6:
  81 0034 00000000 		.word	.LC0
  82 0038 20000000 		.word	.LC2
  83              		.cfi_endproc
  84              	.LFE33:
  85              		.size	compareStrings, .-compareStrings
  86              		.section	.text.readString,"ax",%progbits
  87              		.align	2
  88              		.global	readString
  89              		.code	16
  90              		.thumb_func
  91              		.type	readString, %function
  92              	readString:
  93              	.LFB36:
  39:.\main.c      **** 
  40:.\main.c      ****     
  41:.\main.c      **** 
  42:.\main.c      **** int searchForChar(char *str, char *ch){
  43:.\main.c      ****     char *strpt1 = str; 
  44:.\main.c      ****     int pos = 0; 
  45:.\main.c      ****     int FindMatch = -1; 
  46:.\main.c      ****     
  47:.\main.c      ****     for(;;){
  48:.\main.c      ****         if(*strpt1 == *ch){
  49:.\main.c      ****             UART_1_UartPutString("\n \r Your string first has the specified character at position =
  50:.\main.c      ****             pos  = strpt1 - str;
  51:.\main.c      ****             PrintInt(pos);
  52:.\main.c      ****             FindMatch = 1; 
  53:.\main.c      ****             break; 
  54:.\main.c      ****         }
  55:.\main.c      ****         strpt1++;
  56:.\main.c      ****         if(*strpt1 == 0){
  57:.\main.c      ****             UART_1_UartPutString("\n \r Your string doesn't have that character. ");
  58:.\main.c      ****             break;
  59:.\main.c      ****         }
  60:.\main.c      ****         
  61:.\main.c      ****     }
  62:.\main.c      ****     
  63:.\main.c      ****        
  64:.\main.c      **** 
  65:.\main.c      ****      return FindMatch; 
  66:.\main.c      **** }
  67:.\main.c      **** 
  68:.\main.c      **** 
  69:.\main.c      **** int searchSubString(char *str, char *subStr)
  70:.\main.c      **** {
  71:.\main.c      ****     char *strpt1 = str; 
  72:.\main.c      ****     char *strpt2 = subStr; 
  73:.\main.c      ****     int Matchpt = 0; 
  74:.\main.c      ****     int isSSet = -1; 
  75:.\main.c      ****     
  76:.\main.c      **** while(*strpt1 != 0){
  77:.\main.c      ****     if(*strpt1 == *strpt2){
ARM GAS  C:\Users\egh35\AppData\Local\Temp\cc54Wcia.s 			page 4


  78:.\main.c      ****         Matchpt = strpt1 - str;
  79:.\main.c      ****         //UART_1_UartPutString("\n \r String 2 may be a subset of String 1.... ");
  80:.\main.c      ****         Matchpt = strpt1 - str; //save match start point
  81:.\main.c      ****         while(*strpt2 != 0){
  82:.\main.c      ****             if(*strpt1 != *strpt2){
  83:.\main.c      ****                 UART_1_UartPutString("\n \r String 2 is not a full subset of String 1. ");
  84:.\main.c      ****                 Matchpt = 0;
  85:.\main.c      ****                 break;
  86:.\main.c      ****             }
  87:.\main.c      ****             strpt1++;
  88:.\main.c      ****             strpt2++;
  89:.\main.c      ****             if(*strpt2 ==0 | *strpt1 == 0){
  90:.\main.c      ****                 break;
  91:.\main.c      ****             }
  92:.\main.c      ****         }
  93:.\main.c      ****                 
  94:.\main.c      ****       
  95:.\main.c      ****             }
  96:.\main.c      ****     strpt1++;
  97:.\main.c      ****     
  98:.\main.c      **** }
  99:.\main.c      **** if(Matchpt != 0)
 100:.\main.c      **** {
 101:.\main.c      ****     UART_1_UartPutString("\n \r String 2 is a subset of String 1, starting at position ");
 102:.\main.c      ****     PrintInt(Matchpt); 
 103:.\main.c      **** }
 104:.\main.c      **** else
 105:.\main.c      **** {
 106:.\main.c      ****    UART_1_UartPutString("\n \r String 2 is not a subset of String 1 "); 
 107:.\main.c      ****   }
 108:.\main.c      ****     return Matchpt; 
 109:.\main.c      **** 
 110:.\main.c      **** }
 111:.\main.c      **** 
 112:.\main.c      **** void readString(char *buffer)
 113:.\main.c      **** {
  94              		.loc 1 113 0
  95              		.cfi_startproc
  96              	.LVL10:
  97 0000 38B5     		push	{r3, r4, r5, lr}
  98              		.cfi_def_cfa_offset 16
  99              		.cfi_offset 3, -16
 100              		.cfi_offset 4, -12
 101              		.cfi_offset 5, -8
 102              		.cfi_offset 14, -4
 103 0002 051C     		mov	r5, r0
 104              	.LVL11:
 105              	.L12:
 114:.\main.c      **** uint32 rxData;
 115:.\main.c      **** char *ptr = buffer;
 116:.\main.c      ****     
 117:.\main.c      **** for(;;){
 118:.\main.c      ****     rxData = UART_1_UartGetChar();
 106              		.loc 1 118 0
 107 0004 FFF7FEFF 		bl	UART_1_UartGetChar
 108              	.LVL12:
 109 0008 041E     		sub	r4, r0, #0
ARM GAS  C:\Users\egh35\AppData\Local\Temp\cc54Wcia.s 			page 5


 110              	.LVL13:
 119:.\main.c      ****     if(rxData){
 111              		.loc 1 119 0
 112 000a FBD0     		beq	.L12
 120:.\main.c      ****         UART_1_UartPutChar(rxData); /* Echo character. */
 113              		.loc 1 120 0
 114 000c FFF7FEFF 		bl	UART_1_SpiUartWriteTxData
 115              	.LVL14:
 121:.\main.c      ****         /* On a carriage return, null terminate the string
 122:.\main.c      ****         and break out of the loop. */
 123:.\main.c      ****         if(rxData == 13){
 116              		.loc 1 123 0
 117 0010 0D2C     		cmp	r4, #13
 118 0012 02D1     		bne	.L10
 124:.\main.c      ****         *ptr = 0;
 119              		.loc 1 124 0
 120 0014 0023     		mov	r3, #0
 121 0016 2B70     		strb	r3, [r5]
 122 0018 02E0     		b	.L13
 123              	.L10:
 125:.\main.c      ****         break;
 126:.\main.c      ****         }
 127:.\main.c      **** *ptr = rxData;
 124              		.loc 1 127 0
 125 001a 2C70     		strb	r4, [r5]
 128:.\main.c      **** ptr++;
 126              		.loc 1 128 0
 127 001c 0135     		add	r5, r5, #1
 128              	.LVL15:
 129 001e F1E7     		b	.L12
 130              	.L13:
 129:.\main.c      **** }
 130:.\main.c      **** }
 131:.\main.c      **** }
 131              		.loc 1 131 0
 132              		@ sp needed
 133              	.LVL16:
 134              	.LVL17:
 135 0020 38BD     		pop	{r3, r4, r5, pc}
 136              		.cfi_endproc
 137              	.LFE36:
 138              		.size	readString, .-readString
 139 0022 C046     		.section	.text.readInt,"ax",%progbits
 140              		.align	2
 141              		.global	readInt
 142              		.code	16
 143              		.thumb_func
 144              		.type	readInt, %function
 145              	readInt:
 146              	.LFB37:
 132:.\main.c      **** 
 133:.\main.c      **** void readInt(int *choice){
 147              		.loc 1 133 0
 148              		.cfi_startproc
 149              	.LVL18:
 150 0000 70B5     		push	{r4, r5, r6, lr}
 151              		.cfi_def_cfa_offset 16
ARM GAS  C:\Users\egh35\AppData\Local\Temp\cc54Wcia.s 			page 6


 152              		.cfi_offset 4, -16
 153              		.cfi_offset 5, -12
 154              		.cfi_offset 6, -8
 155              		.cfi_offset 14, -4
 156 0002 061C     		mov	r6, r0
 157              	.LVL19:
 158              	.L18:
 134:.\main.c      ****     int rxData;
 135:.\main.c      ****     int *ptr1 = choice; 
 136:.\main.c      ****     
 137:.\main.c      **** for(;;){
 138:.\main.c      ****     rxData = UART_1_UartGetChar();
 159              		.loc 1 138 0
 160 0004 FFF7FEFF 		bl	UART_1_UartGetChar
 161              	.LVL20:
 162 0008 041E     		sub	r4, r0, #0
 163              	.LVL21:
 139:.\main.c      ****     if(rxData){
 164              		.loc 1 139 0
 165 000a FBD0     		beq	.L18
 140:.\main.c      ****         UART_1_UartPutChar(rxData); /* Echo character. */
 166              		.loc 1 140 0
 167 000c FFF7FEFF 		bl	UART_1_SpiUartWriteTxData
 168              	.LVL22:
 141:.\main.c      ****         /* On a carriage return, null terminate the string
 142:.\main.c      ****         and break out of the loop. */
 143:.\main.c      ****         if(rxData == 13){
 169              		.loc 1 143 0
 170 0010 0D2C     		cmp	r4, #13
 171 0012 02D1     		bne	.L16
 144:.\main.c      ****         *ptr1 = 0;
 172              		.loc 1 144 0
 173 0014 0023     		mov	r3, #0
 174 0016 3360     		str	r3, [r6]
 175 0018 02E0     		b	.L19
 176              	.L16:
 145:.\main.c      ****         break;
 146:.\main.c      ****         }
 147:.\main.c      **** *ptr1 = rxData - 48;
 177              		.loc 1 147 0
 178 001a 303C     		sub	r4, r4, #48
 179              	.LVL23:
 180 001c 10C6     		stmia	r6!, {r4}
 181              	.LVL24:
 182 001e F1E7     		b	.L18
 183              	.LVL25:
 184              	.L19:
 148:.\main.c      **** ptr1++;
 149:.\main.c      **** }
 150:.\main.c      **** }
 151:.\main.c      **** }
 185              		.loc 1 151 0
 186              		@ sp needed
 187              	.LVL26:
 188              	.LVL27:
 189 0020 70BD     		pop	{r4, r5, r6, pc}
 190              		.cfi_endproc
ARM GAS  C:\Users\egh35\AppData\Local\Temp\cc54Wcia.s 			page 7


 191              	.LFE37:
 192              		.size	readInt, .-readInt
 193 0022 C046     		.section	.text.PrintInt,"ax",%progbits
 194              		.align	2
 195              		.global	PrintInt
 196              		.code	16
 197              		.thumb_func
 198              		.type	PrintInt, %function
 199              	PrintInt:
 200              	.LFB38:
 152:.\main.c      **** 
 153:.\main.c      **** void PrintInt(int b){
 201              		.loc 1 153 0
 202              		.cfi_startproc
 203              	.LVL28:
 204 0000 00B5     		push	{lr}
 205              		.cfi_def_cfa_offset 4
 206              		.cfi_offset 14, -4
 207 0002 85B0     		sub	sp, sp, #20
 208              		.cfi_def_cfa_offset 24
 209 0004 021C     		mov	r2, r0
 154:.\main.c      ****     char buf[10];
 155:.\main.c      ****     sprintf(buf, "%d", b); 
 210              		.loc 1 155 0
 211 0006 01A8     		add	r0, sp, #4
 212              	.LVL29:
 213 0008 0349     		ldr	r1, .L21
 214 000a FFF7FEFF 		bl	sprintf
 215              	.LVL30:
 156:.\main.c      ****     UART_1_UartPutString(buf);
 216              		.loc 1 156 0
 217 000e 01A8     		add	r0, sp, #4
 218 0010 FFF7FEFF 		bl	UART_1_UartPutString
 219              	.LVL31:
 157:.\main.c      **** 
 158:.\main.c      **** }
 220              		.loc 1 158 0
 221 0014 05B0     		add	sp, sp, #20
 222              		@ sp needed
 223 0016 00BD     		pop	{pc}
 224              	.L22:
 225              		.align	2
 226              	.L21:
 227 0018 3C000000 		.word	.LC4
 228              		.cfi_endproc
 229              	.LFE38:
 230              		.size	PrintInt, .-PrintInt
 231              		.section	.text.searchForChar,"ax",%progbits
 232              		.align	2
 233              		.global	searchForChar
 234              		.code	16
 235              		.thumb_func
 236              		.type	searchForChar, %function
 237              	searchForChar:
 238              	.LFB34:
  42:.\main.c      **** int searchForChar(char *str, char *ch){
 239              		.loc 1 42 0
ARM GAS  C:\Users\egh35\AppData\Local\Temp\cc54Wcia.s 			page 8


 240              		.cfi_startproc
 241              	.LVL32:
 242 0000 38B5     		push	{r3, r4, r5, lr}
 243              		.cfi_def_cfa_offset 16
 244              		.cfi_offset 3, -16
 245              		.cfi_offset 4, -12
 246              		.cfi_offset 5, -8
 247              		.cfi_offset 14, -4
 248 0002 051C     		mov	r5, r0
 249              	.LVL33:
  43:.\main.c      ****     char *strpt1 = str; 
 250              		.loc 1 43 0
 251 0004 041C     		mov	r4, r0
 252              	.LVL34:
 253              	.L26:
  48:.\main.c      ****         if(*strpt1 == *ch){
 254              		.loc 1 48 0
 255 0006 2278     		ldrb	r2, [r4]
 256 0008 0B78     		ldrb	r3, [r1]
 257 000a 9A42     		cmp	r2, r3
 258 000c 07D1     		bne	.L24
 259              	.LBB2:
  49:.\main.c      ****             UART_1_UartPutString("\n \r Your string first has the specified character at position =
 260              		.loc 1 49 0
 261 000e 0948     		ldr	r0, .L28
 262              	.LVL35:
 263 0010 FFF7FEFF 		bl	UART_1_UartPutString
 264              	.LVL36:
  50:.\main.c      ****             pos  = strpt1 - str;
 265              		.loc 1 50 0
 266 0014 601B     		sub	r0, r4, r5
 267              	.LVL37:
  51:.\main.c      ****             PrintInt(pos);
 268              		.loc 1 51 0
 269 0016 FFF7FEFF 		bl	PrintInt
 270              	.LVL38:
  52:.\main.c      ****             FindMatch = 1; 
 271              		.loc 1 52 0
 272 001a 0120     		mov	r0, #1
  53:.\main.c      ****             break; 
 273              		.loc 1 53 0
 274 001c 08E0     		b	.L25
 275              	.LVL39:
 276              	.L24:
 277              	.LBE2:
  55:.\main.c      ****         strpt1++;
 278              		.loc 1 55 0
 279 001e 0134     		add	r4, r4, #1
 280              	.LVL40:
  56:.\main.c      ****         if(*strpt1 == 0){
 281              		.loc 1 56 0
 282 0020 2378     		ldrb	r3, [r4]
 283 0022 002B     		cmp	r3, #0
 284 0024 EFD1     		bne	.L26
  57:.\main.c      ****             UART_1_UartPutString("\n \r Your string doesn't have that character. ");
 285              		.loc 1 57 0
 286 0026 0448     		ldr	r0, .L28+4
ARM GAS  C:\Users\egh35\AppData\Local\Temp\cc54Wcia.s 			page 9


 287              	.LVL41:
 288 0028 FFF7FEFF 		bl	UART_1_UartPutString
 289              	.LVL42:
  45:.\main.c      ****     int FindMatch = -1; 
 290              		.loc 1 45 0
 291 002c 0120     		mov	r0, #1
 292 002e 4042     		neg	r0, r0
 293              	.LVL43:
 294              	.L25:
  66:.\main.c      **** }
 295              		.loc 1 66 0
 296              		@ sp needed
 297              	.LVL44:
 298              	.LVL45:
 299 0030 38BD     		pop	{r3, r4, r5, pc}
 300              	.L29:
 301 0032 C046     		.align	2
 302              	.L28:
 303 0034 40000000 		.word	.LC6
 304 0038 84000000 		.word	.LC8
 305              		.cfi_endproc
 306              	.LFE34:
 307              		.size	searchForChar, .-searchForChar
 308              		.section	.text.searchSubString,"ax",%progbits
 309              		.align	2
 310              		.global	searchSubString
 311              		.code	16
 312              		.thumb_func
 313              		.type	searchSubString, %function
 314              	searchSubString:
 315              	.LFB35:
  70:.\main.c      **** {
 316              		.loc 1 70 0
 317              		.cfi_startproc
 318              	.LVL46:
 319 0000 F0B5     		push	{r4, r5, r6, r7, lr}
 320              		.cfi_def_cfa_offset 20
 321              		.cfi_offset 4, -20
 322              		.cfi_offset 5, -16
 323              		.cfi_offset 6, -12
 324              		.cfi_offset 7, -8
 325              		.cfi_offset 14, -4
 326 0002 4746     		mov	r7, r8
 327 0004 80B4     		push	{r7}
 328              		.cfi_def_cfa_offset 24
 329              		.cfi_offset 8, -24
 330 0006 071C     		mov	r7, r0
 331 0008 0D1C     		mov	r5, r1
 332              	.LVL47:
  71:.\main.c      ****     char *strpt1 = str; 
 333              		.loc 1 71 0
 334 000a 041C     		mov	r4, r0
  73:.\main.c      ****     int Matchpt = 0; 
 335              		.loc 1 73 0
 336 000c 0026     		mov	r6, #0
  84:.\main.c      ****                 Matchpt = 0;
 337              		.loc 1 84 0
ARM GAS  C:\Users\egh35\AppData\Local\Temp\cc54Wcia.s 			page 10


 338 000e B046     		mov	r8, r6
  76:.\main.c      **** while(*strpt1 != 0){
 339              		.loc 1 76 0
 340 0010 1AE0     		b	.L31
 341              	.LVL48:
 342              	.L36:
  77:.\main.c      ****     if(*strpt1 == *strpt2){
 343              		.loc 1 77 0
 344 0012 2A78     		ldrb	r2, [r5]
 345 0014 9342     		cmp	r3, r2
 346 0016 16D1     		bne	.L32
 347              	.LVL49:
  80:.\main.c      ****         Matchpt = strpt1 - str; //save match start point
 348              		.loc 1 80 0
 349 0018 E61B     		sub	r6, r4, r7
 350              	.LVL50:
  81:.\main.c      ****         while(*strpt2 != 0){
 351              		.loc 1 81 0
 352 001a 11E0     		b	.L33
 353              	.L35:
  82:.\main.c      ****             if(*strpt1 != *strpt2){
 354              		.loc 1 82 0
 355 001c 2278     		ldrb	r2, [r4]
 356 001e 9342     		cmp	r3, r2
 357 0020 04D0     		beq	.L34
  83:.\main.c      ****                 UART_1_UartPutString("\n \r String 2 is not a full subset of String 1. ");
 358              		.loc 1 83 0
 359 0022 1348     		ldr	r0, .L39
 360 0024 FFF7FEFF 		bl	UART_1_UartPutString
 361              	.LVL51:
  84:.\main.c      ****                 Matchpt = 0;
 362              		.loc 1 84 0
 363 0028 4646     		mov	r6, r8
  85:.\main.c      ****                 break;
 364              		.loc 1 85 0
 365 002a 0CE0     		b	.L32
 366              	.LVL52:
 367              	.L34:
  87:.\main.c      ****             strpt1++;
 368              		.loc 1 87 0
 369 002c 0134     		add	r4, r4, #1
 370              	.LVL53:
  88:.\main.c      ****             strpt2++;
 371              		.loc 1 88 0
 372 002e 0135     		add	r5, r5, #1
 373              	.LVL54:
  89:.\main.c      ****             if(*strpt2 ==0 | *strpt1 == 0){
 374              		.loc 1 89 0
 375 0030 2B78     		ldrb	r3, [r5]
 376 0032 5A42     		neg	r2, r3
 377 0034 5341     		adc	r3, r3, r2
 378 0036 2278     		ldrb	r2, [r4]
 379 0038 5142     		neg	r1, r2
 380 003a 4A41     		adc	r2, r2, r1
 381 003c 1343     		orr	r3, r2
 382 003e 02D1     		bne	.L32
 383              	.L33:
ARM GAS  C:\Users\egh35\AppData\Local\Temp\cc54Wcia.s 			page 11


  81:.\main.c      ****         while(*strpt2 != 0){
 384              		.loc 1 81 0 discriminator 1
 385 0040 2B78     		ldrb	r3, [r5]
 386 0042 002B     		cmp	r3, #0
 387 0044 EAD1     		bne	.L35
 388              	.LVL55:
 389              	.L32:
  96:.\main.c      ****     strpt1++;
 390              		.loc 1 96 0
 391 0046 0134     		add	r4, r4, #1
 392              	.LVL56:
 393              	.L31:
  76:.\main.c      **** while(*strpt1 != 0){
 394              		.loc 1 76 0 discriminator 1
 395 0048 2378     		ldrb	r3, [r4]
 396 004a 002B     		cmp	r3, #0
 397 004c E1D1     		bne	.L36
  99:.\main.c      **** if(Matchpt != 0)
 398              		.loc 1 99 0
 399 004e 002E     		cmp	r6, #0
 400 0050 06D0     		beq	.L37
 401              	.LBB3:
 101:.\main.c      ****     UART_1_UartPutString("\n \r String 2 is a subset of String 1, starting at position ");
 402              		.loc 1 101 0
 403 0052 0848     		ldr	r0, .L39+4
 404 0054 FFF7FEFF 		bl	UART_1_UartPutString
 405              	.LVL57:
 102:.\main.c      ****     PrintInt(Matchpt); 
 406              		.loc 1 102 0
 407 0058 301C     		mov	r0, r6
 408 005a FFF7FEFF 		bl	PrintInt
 409              	.LVL58:
 410              	.LBE3:
 411 005e 02E0     		b	.L38
 412              	.L37:
 106:.\main.c      ****    UART_1_UartPutString("\n \r String 2 is not a subset of String 1 "); 
 413              		.loc 1 106 0
 414 0060 0548     		ldr	r0, .L39+8
 415 0062 FFF7FEFF 		bl	UART_1_UartPutString
 416              	.LVL59:
 417              	.L38:
 110:.\main.c      **** }
 418              		.loc 1 110 0
 419 0066 301C     		mov	r0, r6
 420              		@ sp needed
 421              	.LVL60:
 422              	.LVL61:
 423              	.LVL62:
 424              	.LVL63:
 425 0068 04BC     		pop	{r2}
 426 006a 9046     		mov	r8, r2
 427 006c F0BD     		pop	{r4, r5, r6, r7, pc}
 428              	.L40:
 429 006e C046     		.align	2
 430              	.L39:
 431 0070 B4000000 		.word	.LC10
 432 0074 E4000000 		.word	.LC12
ARM GAS  C:\Users\egh35\AppData\Local\Temp\cc54Wcia.s 			page 12


 433 0078 20010000 		.word	.LC14
 434              		.cfi_endproc
 435              	.LFE35:
 436              		.size	searchSubString, .-searchSubString
 437              		.section	.text.main,"ax",%progbits
 438              		.align	2
 439              		.global	main
 440              		.code	16
 441              		.thumb_func
 442              		.type	main, %function
 443              	main:
 444              	.LFB39:
 159:.\main.c      **** 
 160:.\main.c      **** 
 161:.\main.c      **** int main()
 162:.\main.c      **** {
 445              		.loc 1 162 0
 446              		.cfi_startproc
 447 0000 10B5     		push	{r4, lr}
 448              		.cfi_def_cfa_offset 8
 449              		.cfi_offset 4, -8
 450              		.cfi_offset 14, -4
 451 0002 8CB0     		sub	sp, sp, #48
 452              		.cfi_def_cfa_offset 56
 163:.\main.c      **** CyGlobalIntEnable; /* Enable global interrupts. */
 453              		.loc 1 163 0
 454              	@ 163 ".\main.c" 1
 455 0004 62B6     		CPSIE   i
 456              	@ 0 "" 2
 164:.\main.c      **** UART_1_Start(); /* Start the UART component. */
 457              		.loc 1 164 0
 458              		.code	16
 459 0006 FFF7FEFF 		bl	UART_1_Start
 460              	.LVL64:
 165:.\main.c      **** int MAX_BUFFER_SIZE = 20; 
 166:.\main.c      **** int choice;
 167:.\main.c      **** int8 status;
 168:.\main.c      **** char ch[2];
 169:.\main.c      **** char str1[MAX_BUFFER_SIZE], str2[MAX_BUFFER_SIZE], buffer[MAX_BUFFER_SIZE];
 170:.\main.c      **** 
 171:.\main.c      **** 
 172:.\main.c      **** while(choice){
 461              		.loc 1 172 0
 462 000a 52E0     		b	.L51
 463              	.L49:
 173:.\main.c      **** UART_1_UartPutString("\n \r Function to execute (1 for string \ compare, 2 of character search, 3 f
 464              		.loc 1 173 0
 465 000c 2C48     		ldr	r0, .L53
 466 000e FFF7FEFF 		bl	UART_1_UartPutString
 467              	.LVL65:
 174:.\main.c      **** readInt(&choice); //take in address of choice variable, set it to what user enters
 468              		.loc 1 174 0
 469 0012 01A8     		add	r0, sp, #4
 470 0014 FFF7FEFF 		bl	readInt
 471              	.LVL66:
 175:.\main.c      **** 
 176:.\main.c      **** 
ARM GAS  C:\Users\egh35\AppData\Local\Temp\cc54Wcia.s 			page 13


 177:.\main.c      **** if(choice == -3) break;
 472              		.loc 1 177 0
 473 0018 019B     		ldr	r3, [sp, #4]
 474 001a DA1C     		add	r2, r3, #3
 475 001c 4CD0     		beq	.L43
 178:.\main.c      **** switch(choice){
 476              		.loc 1 178 0
 477 001e 022B     		cmp	r3, #2
 478 0020 14D0     		beq	.L45
 479 0022 032B     		cmp	r3, #3
 480 0024 2AD0     		beq	.L46
 481 0026 012B     		cmp	r3, #1
 482 0028 40D1     		bne	.L52
 179:.\main.c      **** 
 180:.\main.c      **** case 1:
 181:.\main.c      **** /* Read in the strings and store them in str1
 182:.\main.c      **** and str2. */
 183:.\main.c      **** UART_1_UartPutString("\n \r Enter first string.");    
 483              		.loc 1 183 0
 484 002a 2648     		ldr	r0, .L53+4
 485 002c FFF7FEFF 		bl	UART_1_UartPutString
 486              	.LVL67:
 184:.\main.c      **** readString(str1);
 487              		.loc 1 184 0
 488 0030 07A8     		add	r0, sp, #28
 489              	.LVL68:
 490 0032 FFF7FEFF 		bl	readString
 491              	.LVL69:
 185:.\main.c      **** UART_1_UartPutString("\n \r Enter second string.");
 492              		.loc 1 185 0
 493 0036 2448     		ldr	r0, .L53+8
 494 0038 FFF7FEFF 		bl	UART_1_UartPutString
 495              	.LVL70:
 186:.\main.c      **** readString(str2);
 496              		.loc 1 186 0
 497 003c 02A8     		add	r0, sp, #8
 498              	.LVL71:
 499 003e FFF7FEFF 		bl	readString
 500              	.LVL72:
 187:.\main.c      **** status = compareStrings(str1, str2);
 501              		.loc 1 187 0
 502 0042 07A8     		add	r0, sp, #28
 503              	.LVL73:
 504 0044 02A9     		add	r1, sp, #8
 505              	.LVL74:
 506 0046 FFF7FEFF 		bl	compareStrings
 507              	.LVL75:
 188:.\main.c      **** break;
 508              		.loc 1 188 0
 509 004a 32E0     		b	.L51
 510              	.L45:
 189:.\main.c      **** 
 190:.\main.c      **** case 2:
 191:.\main.c      **** /* Read in the string, store it in str1; the
 192:.\main.c      **** character in ch. */
 193:.\main.c      **** UART_1_UartPutString("\n \r Enter first string.");    
 511              		.loc 1 193 0
ARM GAS  C:\Users\egh35\AppData\Local\Temp\cc54Wcia.s 			page 14


 512 004c 1D48     		ldr	r0, .L53+4
 513 004e FFF7FEFF 		bl	UART_1_UartPutString
 514              	.LVL76:
 194:.\main.c      **** readString(str1);
 515              		.loc 1 194 0
 516 0052 07A8     		add	r0, sp, #28
 517              	.LVL77:
 518 0054 FFF7FEFF 		bl	readString
 519              	.LVL78:
 195:.\main.c      **** UART_1_UartPutString("\n \r Enter second string.");
 520              		.loc 1 195 0
 521 0058 1B48     		ldr	r0, .L53+8
 522 005a FFF7FEFF 		bl	UART_1_UartPutString
 523              	.LVL79:
 196:.\main.c      **** readString(ch);
 524              		.loc 1 196 0
 525 005e 6846     		mov	r0, sp
 526 0060 FFF7FEFF 		bl	readString
 527              	.LVL80:
 197:.\main.c      **** status = searchForChar(str1, ch);
 528              		.loc 1 197 0
 529 0064 07A8     		add	r0, sp, #28
 530              	.LVL81:
 531 0066 6946     		mov	r1, sp
 532 0068 FFF7FEFF 		bl	searchForChar
 533              	.LVL82:
 534 006c C4B2     		uxtb	r4, r0
 535              	.LVL83:
 198:.\main.c      **** UART_1_UartPutString("\n \r Status is: ");
 536              		.loc 1 198 0
 537 006e 1748     		ldr	r0, .L53+12
 538              	.LVL84:
 539 0070 FFF7FEFF 		bl	UART_1_UartPutString
 540              	.LVL85:
 199:.\main.c      **** PrintInt(status);
 541              		.loc 1 199 0
 542 0074 60B2     		sxtb	r0, r4
 543 0076 FFF7FEFF 		bl	PrintInt
 544              	.LVL86:
 200:.\main.c      **** break;
 545              		.loc 1 200 0
 546 007a 1AE0     		b	.L51
 547              	.LVL87:
 548              	.L46:
 201:.\main.c      **** 
 202:.\main.c      **** case 3:
 203:.\main.c      **** /* Read in the string, store it in str1; the
 204:.\main.c      **** substring in str2. */
 205:.\main.c      **** UART_1_UartPutString("\n \r Enter first string.");    
 549              		.loc 1 205 0
 550 007c 1148     		ldr	r0, .L53+4
 551 007e FFF7FEFF 		bl	UART_1_UartPutString
 552              	.LVL88:
 206:.\main.c      **** readString(str1);
 553              		.loc 1 206 0
 554 0082 07A8     		add	r0, sp, #28
 555              	.LVL89:
ARM GAS  C:\Users\egh35\AppData\Local\Temp\cc54Wcia.s 			page 15


 556 0084 FFF7FEFF 		bl	readString
 557              	.LVL90:
 207:.\main.c      **** UART_1_UartPutString("\n \r Enter second string.");
 558              		.loc 1 207 0
 559 0088 0F48     		ldr	r0, .L53+8
 560 008a FFF7FEFF 		bl	UART_1_UartPutString
 561              	.LVL91:
 208:.\main.c      **** readString(str2);
 562              		.loc 1 208 0
 563 008e 02A8     		add	r0, sp, #8
 564              	.LVL92:
 565 0090 FFF7FEFF 		bl	readString
 566              	.LVL93:
 209:.\main.c      **** status = searchSubString(str1, str2);
 567              		.loc 1 209 0
 568 0094 07A8     		add	r0, sp, #28
 569              	.LVL94:
 570 0096 02A9     		add	r1, sp, #8
 571              	.LVL95:
 572 0098 FFF7FEFF 		bl	searchSubString
 573              	.LVL96:
 574 009c C4B2     		uxtb	r4, r0
 575              	.LVL97:
 210:.\main.c      **** UART_1_UartPutString("\n \r Status is: ");
 576              		.loc 1 210 0
 577 009e 0B48     		ldr	r0, .L53+12
 578              	.LVL98:
 579 00a0 FFF7FEFF 		bl	UART_1_UartPutString
 580              	.LVL99:
 211:.\main.c      **** PrintInt(status);
 581              		.loc 1 211 0
 582 00a4 60B2     		sxtb	r0, r4
 583 00a6 FFF7FEFF 		bl	PrintInt
 584              	.LVL100:
 212:.\main.c      **** break;
 585              		.loc 1 212 0
 586 00aa 02E0     		b	.L51
 587              	.LVL101:
 588              	.L52:
 213:.\main.c      **** default:
 214:.\main.c      **** UART_1_UartPutString("\n \r Erroneous entry. Try again.");
 589              		.loc 1 214 0
 590 00ac 0848     		ldr	r0, .L53+16
 591 00ae FFF7FEFF 		bl	UART_1_UartPutString
 592              	.LVL102:
 593              	.L51:
 172:.\main.c      **** while(choice){
 594              		.loc 1 172 0 discriminator 1
 595 00b2 019B     		ldr	r3, [sp, #4]
 596 00b4 002B     		cmp	r3, #0
 597 00b6 A9D1     		bne	.L49
 598              	.L43:
 215:.\main.c      **** };
 216:.\main.c      **** }
 217:.\main.c      **** UART_1_UartPutString("\n \r All done. Idling the CPU.");
 599              		.loc 1 217 0
 600 00b8 0648     		ldr	r0, .L53+20
ARM GAS  C:\Users\egh35\AppData\Local\Temp\cc54Wcia.s 			page 16


 601 00ba FFF7FEFF 		bl	UART_1_UartPutString
 602              	.LVL103:
 603              	.L50:
 604 00be FEE7     		b	.L50
 605              	.L54:
 606              		.align	2
 607              	.L53:
 608 00c0 4C010000 		.word	.LC16
 609 00c4 C0010000 		.word	.LC18
 610 00c8 D8010000 		.word	.LC20
 611 00cc F4010000 		.word	.LC22
 612 00d0 04020000 		.word	.LC24
 613 00d4 24020000 		.word	.LC26
 614              		.cfi_endproc
 615              	.LFE39:
 616              		.size	main, .-main
 617              		.section	.rodata.str1.4,"aMS",%progbits,1
 618              		.align	2
 619              	.LC0:
 620 0000 0A200D20 		.ascii	"\012 \015 Your strings do not match. \000"
 620      596F7572 
 620      20737472 
 620      696E6773 
 620      20646F20 
 621              	.LC2:
 622 0020 0A200D20 		.ascii	"\012 \015 Your strings match. \000"
 622      596F7572 
 622      20737472 
 622      696E6773 
 622      206D6174 
 623 0039 000000   		.space	3
 624              	.LC4:
 625 003c 256400   		.ascii	"%d\000"
 626 003f 00       		.space	1
 627              	.LC6:
 628 0040 0A200D20 		.ascii	"\012 \015 Your string first has the specified chara"
 628      596F7572 
 628      20737472 
 628      696E6720 
 628      66697273 
 629 006d 63746572 		.ascii	"cter at position = \000"
 629      20617420 
 629      706F7369 
 629      74696F6E 
 629      203D2000 
 630 0081 000000   		.space	3
 631              	.LC8:
 632 0084 0A200D20 		.ascii	"\012 \015 Your string doesn't have that character. "
 632      596F7572 
 632      20737472 
 632      696E6720 
 632      646F6573 
 633 00b1 00       		.ascii	"\000"
 634 00b2 0000     		.space	2
 635              	.LC10:
 636 00b4 0A200D20 		.ascii	"\012 \015 String 2 is not a full subset of String 1"
 636      53747269 
ARM GAS  C:\Users\egh35\AppData\Local\Temp\cc54Wcia.s 			page 17


 636      6E672032 
 636      20697320 
 636      6E6F7420 
 637 00e1 2E2000   		.ascii	". \000"
 638              	.LC12:
 639 00e4 0A200D20 		.ascii	"\012 \015 String 2 is a subset of String 1, startin"
 639      53747269 
 639      6E672032 
 639      20697320 
 639      61207375 
 640 0111 67206174 		.ascii	"g at position \000"
 640      20706F73 
 640      6974696F 
 640      6E2000
 641              	.LC14:
 642 0120 0A200D20 		.ascii	"\012 \015 String 2 is not a subset of String 1 \000"
 642      53747269 
 642      6E672032 
 642      20697320 
 642      6E6F7420 
 643 014a 0000     		.space	2
 644              	.LC16:
 645 014c 0A200D20 		.ascii	"\012 \015 Function to execute (1 for string  compar"
 645      46756E63 
 645      74696F6E 
 645      20746F20 
 645      65786563 
 646 0179 652C2032 		.ascii	"e, 2 of character search, 3 for sub-string \002 sea"
 646      206F6620 
 646      63686172 
 646      61637465 
 646      72207365 
 647 01a9 7263682C 		.ascii	"rch, or -1 to exit): \000"
 647      206F7220 
 647      2D312074 
 647      6F206578 
 647      6974293A 
 648 01bf 00       		.space	1
 649              	.LC18:
 650 01c0 0A200D20 		.ascii	"\012 \015 Enter first string.\000"
 650      456E7465 
 650      72206669 
 650      72737420 
 650      73747269 
 651              	.LC20:
 652 01d8 0A200D20 		.ascii	"\012 \015 Enter second string.\000"
 652      456E7465 
 652      72207365 
 652      636F6E64 
 652      20737472 
 653 01f1 000000   		.space	3
 654              	.LC22:
 655 01f4 0A200D20 		.ascii	"\012 \015 Status is: \000"
 655      53746174 
 655      75732069 
 655      733A2000 
 656              	.LC24:
ARM GAS  C:\Users\egh35\AppData\Local\Temp\cc54Wcia.s 			page 18


 657 0204 0A200D20 		.ascii	"\012 \015 Erroneous entry. Try again.\000"
 657      4572726F 
 657      6E656F75 
 657      7320656E 
 657      7472792E 
 658              	.LC26:
 659 0224 0A200D20 		.ascii	"\012 \015 All done. Idling the CPU.\000"
 659      416C6C20 
 659      646F6E65 
 659      2E204964 
 659      6C696E67 
 660 0242 0000     		.text
 661              	.Letext0:
 662              		.file 2 "Generated_Source\\PSoC4/cytypes.h"
 663              		.file 3 "Generated_Source\\PSoC4/UART_1_SPI_UART.h"
 664              		.file 4 "c:\\program files (x86)\\cypress\\psoc creator\\3.2\\psoc creator\\import\\gnu\\arm\\4.8.
 665              		.file 5 "Generated_Source\\PSoC4/UART_1.h"