ARM GAS  C:\Users\egh35\AppData\Local\Temp\ccJqjiys.s 			page 1


   1              		.cpu cortex-m0
   2              		.fpu softvfp
   3              		.eabi_attribute 20, 1
   4              		.eabi_attribute 21, 1
   5              		.eabi_attribute 23, 3
   6              		.eabi_attribute 24, 1
   7              		.eabi_attribute 25, 1
   8              		.eabi_attribute 26, 1
   9              		.eabi_attribute 30, 1
  10              		.eabi_attribute 34, 0
  11              		.eabi_attribute 18, 4
  12              		.code	16
  13              		.file	"main.c"
  14              		.text
  15              	.Ltext0:
  16              		.cfi_sections	.debug_frame
  17              		.section	.text.timerISR,"ax",%progbits
  18              		.align	2
  19              		.global	timerISR
  20              		.code	16
  21              		.thumb_func
  22              		.type	timerISR, %function
  23              	timerISR:
  24              	.LFB37:
  25              		.file 1 ".\\main.c"
   1:.\main.c      **** /* ========================================
   2:.\main.c      ****  *
   3:.\main.c      ****  * Copyright YOUR COMPANY, THE YEAR
   4:.\main.c      ****  * All Rights Reserved
   5:.\main.c      ****  * UNPUBLISHED, LICENSED SOFTWARE.
   6:.\main.c      ****  *
   7:.\main.c      ****  * CONFIDENTIAL AND PROPRIETARY INFORMATION
   8:.\main.c      ****  * WHICH IS THE PROPERTY OF your company.
   9:.\main.c      ****  *
  10:.\main.c      ****  * ========================================
  11:.\main.c      **** */
  12:.\main.c      **** #include <project.h>
  13:.\main.c      **** #include <stdio.h>
  14:.\main.c      **** #include <stdbool.h> 
  15:.\main.c      **** 
  16:.\main.c      **** int ms_acc; 
  17:.\main.c      **** int seconds = 0;
  18:.\main.c      **** int minutes = 0;
  19:.\main.c      **** int hours = 0;
  20:.\main.c      **** char buf[10];
  21:.\main.c      **** int rxData; 
  22:.\main.c      **** bool reset = true; 
  23:.\main.c      **** int max_value; 
  24:.\main.c      **** 
  25:.\main.c      **** void PrintInt(int b){
  26:.\main.c      ****     char buf[10];
  27:.\main.c      ****     sprintf(buf, "%d", b); 
  28:.\main.c      ****     UART_1_UartPutString(buf);
  29:.\main.c      **** 
  30:.\main.c      **** }
  31:.\main.c      **** 
  32:.\main.c      **** 
ARM GAS  C:\Users\egh35\AppData\Local\Temp\ccJqjiys.s 			page 2


  33:.\main.c      **** int read2Dig(int limit) // read in 2 digits, convert to int. must be less than 24 H, 60 min, 60 s. 
  34:.\main.c      **** {
  35:.\main.c      **** int rxData;
  36:.\main.c      **** char digit[2];
  37:.\main.c      **** int dig = 0;
  38:.\main.c      **** int clk = 0; 
  39:.\main.c      ****     
  40:.\main.c      **** for(;;){ //read in 2 ascii characters to an array of length 2. 
  41:.\main.c      ****     rxData = UART_1_UartGetChar();
  42:.\main.c      ****     if(rxData){
  43:.\main.c      ****         UART_1_UartPutChar(rxData);
  44:.\main.c      ****         digit[dig] = rxData;
  45:.\main.c      ****         dig++;
  46:.\main.c      ****         if(dig >= 2){
  47:.\main.c      ****             break;
  48:.\main.c      ****         }
  49:.\main.c      ****         /* Echo character. */
  50:.\main.c      ****         /* On a carriage return, null terminate the string
  51:.\main.c      ****         and break out of the loop. */
  52:.\main.c      ****         }
  53:.\main.c      ****     
  54:.\main.c      **** 
  55:.\main.c      **** }
  56:.\main.c      **** //converts from ascii to int
  57:.\main.c      **** digit[0] = digit[0] - 48; 
  58:.\main.c      **** digit[1] = digit[1] - 48; 
  59:.\main.c      **** 
  60:.\main.c      **** clk = digit[0]*10 + digit[1];
  61:.\main.c      **** 
  62:.\main.c      **** if(clk >= limit){
  63:.\main.c      ****     UART_1_UartPutString("\n \r Error - you have input a value outside the bounds. Try again:");
  64:.\main.c      ****     clk = read2Dig(limit);
  65:.\main.c      **** }
  66:.\main.c      **** 
  67:.\main.c      **** return clk; 
  68:.\main.c      **** }
  69:.\main.c      **** 
  70:.\main.c      **** void InitClk(){
  71:.\main.c      **** 
  72:.\main.c      **** UART_1_UartPutString("\n \r Enter in hour value:");
  73:.\main.c      **** hours = read2Dig(24);//hours
  74:.\main.c      **** UART_1_UartPutString("\n \r Enter in minute value:");
  75:.\main.c      **** minutes = read2Dig(60);//minutes
  76:.\main.c      **** UART_1_UartPutString("\n \r Enter in seconds value:");
  77:.\main.c      **** seconds = read2Dig(60);//minutes    
  78:.\main.c      **** reset = true;     
  79:.\main.c      ****     
  80:.\main.c      **** }
  81:.\main.c      **** 
  82:.\main.c      **** 
  83:.\main.c      **** CY_ISR(UART_Int) /* ISR to handle UART interrupts. */
  84:.\main.c      **** {
  85:.\main.c      **** 
  86:.\main.c      **** rxData = UART_1_UartGetChar(); /* Get character from buffer. */
  87:.\main.c      **** UART_1_UartPutChar(rxData); /* Echo back to terminal. */
  88:.\main.c      **** if(rxData == 99){
  89:.\main.c      ****     reset = false; 
ARM GAS  C:\Users\egh35\AppData\Local\Temp\ccJqjiys.s 			page 3


  90:.\main.c      ****     InitClk();
  91:.\main.c      ****        
  92:.\main.c      **** }
  93:.\main.c      **** 
  94:.\main.c      **** 
  95:.\main.c      **** /* Process the user input as appropriate. */
  96:.\main.c      **** /* Clear the interrrupt. */
  97:.\main.c      **** 
  98:.\main.c      **** UART_1_ClearRxInterruptSource(UART_1_GetRxInterruptSource());
  99:.\main.c      **** }
 100:.\main.c      **** 
 101:.\main.c      **** 
 102:.\main.c      **** 
 103:.\main.c      **** 
 104:.\main.c      **** CY_ISR(timerISR) /* ISR to handle the tc interrupt. */
 105:.\main.c      **** {
  26              		.loc 1 105 0
  27              		.cfi_startproc
  28 0000 08B5     		push	{r3, lr}
  29              		.cfi_def_cfa_offset 8
  30              		.cfi_offset 3, -8
  31              		.cfi_offset 14, -4
 106:.\main.c      **** ms_acc++;
  32              		.loc 1 106 0
  33 0002 144A     		ldr	r2, .L6
  34 0004 1368     		ldr	r3, [r2]
  35 0006 0133     		add	r3, r3, #1
  36 0008 1360     		str	r3, [r2]
 107:.\main.c      ****     
 108:.\main.c      **** if(ms_acc == 5){
  37              		.loc 1 108 0
  38 000a 052B     		cmp	r3, #5
  39 000c 06D1     		bne	.L2
 109:.\main.c      ****     seconds++;
  40              		.loc 1 109 0
  41 000e 124B     		ldr	r3, .L6+4
  42 0010 1A68     		ldr	r2, [r3]
  43 0012 0132     		add	r2, r2, #1
  44 0014 1A60     		str	r2, [r3]
 110:.\main.c      ****     ms_acc = 0;
  45              		.loc 1 110 0
  46 0016 0022     		mov	r2, #0
  47 0018 0E4B     		ldr	r3, .L6
  48 001a 1A60     		str	r2, [r3]
  49              	.L2:
 111:.\main.c      **** }
 112:.\main.c      **** 
 113:.\main.c      **** if(seconds == 60){
  50              		.loc 1 113 0
  51 001c 0E4B     		ldr	r3, .L6+4
  52 001e 1B68     		ldr	r3, [r3]
  53 0020 3C2B     		cmp	r3, #60
  54 0022 05D1     		bne	.L3
 114:.\main.c      ****     minutes++;
  55              		.loc 1 114 0
  56 0024 0C4B     		ldr	r3, .L6+4
  57 0026 5A68     		ldr	r2, [r3, #4]
ARM GAS  C:\Users\egh35\AppData\Local\Temp\ccJqjiys.s 			page 4


  58 0028 0132     		add	r2, r2, #1
  59 002a 5A60     		str	r2, [r3, #4]
 115:.\main.c      ****     seconds = 0;
  60              		.loc 1 115 0
  61 002c 0022     		mov	r2, #0
  62 002e 1A60     		str	r2, [r3]
  63              	.L3:
 116:.\main.c      **** }
 117:.\main.c      **** 
 118:.\main.c      **** if(minutes == 60){
  64              		.loc 1 118 0
  65 0030 094B     		ldr	r3, .L6+4
  66 0032 5B68     		ldr	r3, [r3, #4]
  67 0034 3C2B     		cmp	r3, #60
  68 0036 03D1     		bne	.L4
 119:.\main.c      ****     hours++;
  69              		.loc 1 119 0
  70 0038 074B     		ldr	r3, .L6+4
  71 003a 9A68     		ldr	r2, [r3, #8]
  72 003c 0132     		add	r2, r2, #1
  73 003e 9A60     		str	r2, [r3, #8]
  74              	.L4:
 120:.\main.c      **** 
 121:.\main.c      **** }
 122:.\main.c      **** if(hours == 24){
  75              		.loc 1 122 0
  76 0040 054B     		ldr	r3, .L6+4
  77 0042 9B68     		ldr	r3, [r3, #8]
  78 0044 182B     		cmp	r3, #24
  79 0046 02D1     		bne	.L5
 123:.\main.c      ****     hours = 0;
  80              		.loc 1 123 0
  81 0048 0022     		mov	r2, #0
  82 004a 034B     		ldr	r3, .L6+4
  83 004c 9A60     		str	r2, [r3, #8]
  84              	.L5:
 124:.\main.c      **** 
 125:.\main.c      **** }
 126:.\main.c      ****     
 127:.\main.c      **** /* Code to handle tc interrupt. */
 128:.\main.c      **** /* Reset the interrupt. */
 129:.\main.c      **** Timer_1_ReadStatusRegister();
  85              		.loc 1 129 0
  86 004e FFF7FEFF 		bl	Timer_1_ReadStatusRegister
  87              	.LVL0:
 130:.\main.c      **** }
  88              		.loc 1 130 0
  89              		@ sp needed
  90 0052 08BD     		pop	{r3, pc}
  91              	.L7:
  92              		.align	2
  93              	.L6:
  94 0054 00000000 		.word	ms_acc
  95 0058 00000000 		.word	.LANCHOR0
  96              		.cfi_endproc
  97              	.LFE37:
  98              		.size	timerISR, .-timerISR
ARM GAS  C:\Users\egh35\AppData\Local\Temp\ccJqjiys.s 			page 5


  99              		.section	.text.PrintInt,"ax",%progbits
 100              		.align	2
 101              		.global	PrintInt
 102              		.code	16
 103              		.thumb_func
 104              		.type	PrintInt, %function
 105              	PrintInt:
 106              	.LFB33:
  25:.\main.c      **** void PrintInt(int b){
 107              		.loc 1 25 0
 108              		.cfi_startproc
 109              	.LVL1:
 110 0000 00B5     		push	{lr}
 111              		.cfi_def_cfa_offset 4
 112              		.cfi_offset 14, -4
 113 0002 85B0     		sub	sp, sp, #20
 114              		.cfi_def_cfa_offset 24
 115 0004 021C     		mov	r2, r0
  27:.\main.c      ****     sprintf(buf, "%d", b); 
 116              		.loc 1 27 0
 117 0006 01A8     		add	r0, sp, #4
 118              	.LVL2:
 119 0008 0349     		ldr	r1, .L9
 120 000a FFF7FEFF 		bl	sprintf
 121              	.LVL3:
  28:.\main.c      ****     UART_1_UartPutString(buf);
 122              		.loc 1 28 0
 123 000e 01A8     		add	r0, sp, #4
 124 0010 FFF7FEFF 		bl	UART_1_UartPutString
 125              	.LVL4:
  30:.\main.c      **** }
 126              		.loc 1 30 0
 127 0014 05B0     		add	sp, sp, #20
 128              		@ sp needed
 129 0016 00BD     		pop	{pc}
 130              	.L10:
 131              		.align	2
 132              	.L9:
 133 0018 00000000 		.word	.LC2
 134              		.cfi_endproc
 135              	.LFE33:
 136              		.size	PrintInt, .-PrintInt
 137              		.section	.text.read2Dig,"ax",%progbits
 138              		.align	2
 139              		.global	read2Dig
 140              		.code	16
 141              		.thumb_func
 142              		.type	read2Dig, %function
 143              	read2Dig:
 144              	.LFB34:
  34:.\main.c      **** {
 145              		.loc 1 34 0
 146              		.cfi_startproc
 147              	.LVL5:
 148 0000 70B5     		push	{r4, r5, r6, lr}
 149              		.cfi_def_cfa_offset 16
 150              		.cfi_offset 4, -16
ARM GAS  C:\Users\egh35\AppData\Local\Temp\ccJqjiys.s 			page 6


 151              		.cfi_offset 5, -12
 152              		.cfi_offset 6, -8
 153              		.cfi_offset 14, -4
 154 0002 82B0     		sub	sp, sp, #8
 155              		.cfi_def_cfa_offset 24
 156 0004 061C     		mov	r6, r0
 157              	.LVL6:
  37:.\main.c      **** int dig = 0;
 158              		.loc 1 37 0
 159 0006 0025     		mov	r5, #0
 160              	.LVL7:
 161              	.L15:
  41:.\main.c      ****     rxData = UART_1_UartGetChar();
 162              		.loc 1 41 0
 163 0008 FFF7FEFF 		bl	UART_1_UartGetChar
 164              	.LVL8:
 165 000c 041E     		sub	r4, r0, #0
 166              	.LVL9:
  42:.\main.c      ****     if(rxData){
 167              		.loc 1 42 0
 168 000e FBD0     		beq	.L15
  43:.\main.c      ****         UART_1_UartPutChar(rxData);
 169              		.loc 1 43 0
 170 0010 FFF7FEFF 		bl	UART_1_SpiUartWriteTxData
 171              	.LVL10:
  44:.\main.c      ****         digit[dig] = rxData;
 172              		.loc 1 44 0
 173 0014 01AB     		add	r3, sp, #4
 174 0016 5C55     		strb	r4, [r3, r5]
  45:.\main.c      ****         dig++;
 175              		.loc 1 45 0
 176 0018 0135     		add	r5, r5, #1
 177              	.LVL11:
  46:.\main.c      ****         if(dig >= 2){
 178              		.loc 1 46 0
 179 001a 012D     		cmp	r5, #1
 180 001c F4DD     		ble	.L15
  57:.\main.c      **** digit[0] = digit[0] - 48; 
 181              		.loc 1 57 0
 182 001e 1978     		ldrb	r1, [r3]
 183 0020 3039     		sub	r1, r1, #48
 184 0022 C9B2     		uxtb	r1, r1
  58:.\main.c      **** digit[1] = digit[1] - 48; 
 185              		.loc 1 58 0
 186 0024 5A78     		ldrb	r2, [r3, #1]
 187 0026 303A     		sub	r2, r2, #48
 188 0028 D2B2     		uxtb	r2, r2
  60:.\main.c      **** clk = digit[0]*10 + digit[1];
 189              		.loc 1 60 0
 190 002a 8B00     		lsl	r3, r1, #2
 191 002c 5B18     		add	r3, r3, r1
 192 002e 5B00     		lsl	r3, r3, #1
 193 0030 9818     		add	r0, r3, r2
 194              	.LVL12:
  62:.\main.c      **** if(clk >= limit){
 195              		.loc 1 62 0
 196 0032 B042     		cmp	r0, r6
ARM GAS  C:\Users\egh35\AppData\Local\Temp\ccJqjiys.s 			page 7


 197 0034 05DB     		blt	.L14
  63:.\main.c      ****     UART_1_UartPutString("\n \r Error - you have input a value outside the bounds. Try again:");
 198              		.loc 1 63 0
 199 0036 0448     		ldr	r0, .L16
 200              	.LVL13:
 201 0038 FFF7FEFF 		bl	UART_1_UartPutString
 202              	.LVL14:
  64:.\main.c      ****     clk = read2Dig(limit);
 203              		.loc 1 64 0
 204 003c 301C     		mov	r0, r6
 205 003e FFF7FEFF 		bl	read2Dig
 206              	.LVL15:
 207              	.L14:
  68:.\main.c      **** }
 208              		.loc 1 68 0
 209 0042 02B0     		add	sp, sp, #8
 210              		@ sp needed
 211              	.LVL16:
 212              	.LVL17:
 213              	.LVL18:
 214 0044 70BD     		pop	{r4, r5, r6, pc}
 215              	.L17:
 216 0046 C046     		.align	2
 217              	.L16:
 218 0048 04000000 		.word	.LC4
 219              		.cfi_endproc
 220              	.LFE34:
 221              		.size	read2Dig, .-read2Dig
 222              		.section	.text.InitClk,"ax",%progbits
 223              		.align	2
 224              		.global	InitClk
 225              		.code	16
 226              		.thumb_func
 227              		.type	InitClk, %function
 228              	InitClk:
 229              	.LFB35:
  70:.\main.c      **** void InitClk(){
 230              		.loc 1 70 0
 231              		.cfi_startproc
 232 0000 10B5     		push	{r4, lr}
 233              		.cfi_def_cfa_offset 8
 234              		.cfi_offset 4, -8
 235              		.cfi_offset 14, -4
  72:.\main.c      **** UART_1_UartPutString("\n \r Enter in hour value:");
 236              		.loc 1 72 0
 237 0002 0D48     		ldr	r0, .L19
 238 0004 FFF7FEFF 		bl	UART_1_UartPutString
 239              	.LVL19:
  73:.\main.c      **** hours = read2Dig(24);//hours
 240              		.loc 1 73 0
 241 0008 1820     		mov	r0, #24
 242 000a FFF7FEFF 		bl	read2Dig
 243              	.LVL20:
 244 000e 0B4C     		ldr	r4, .L19+4
 245 0010 A060     		str	r0, [r4, #8]
  74:.\main.c      **** UART_1_UartPutString("\n \r Enter in minute value:");
 246              		.loc 1 74 0
ARM GAS  C:\Users\egh35\AppData\Local\Temp\ccJqjiys.s 			page 8


 247 0012 0B48     		ldr	r0, .L19+8
 248 0014 FFF7FEFF 		bl	UART_1_UartPutString
 249              	.LVL21:
  75:.\main.c      **** minutes = read2Dig(60);//minutes
 250              		.loc 1 75 0
 251 0018 3C20     		mov	r0, #60
 252 001a FFF7FEFF 		bl	read2Dig
 253              	.LVL22:
 254 001e 6060     		str	r0, [r4, #4]
  76:.\main.c      **** UART_1_UartPutString("\n \r Enter in seconds value:");
 255              		.loc 1 76 0
 256 0020 0848     		ldr	r0, .L19+12
 257 0022 FFF7FEFF 		bl	UART_1_UartPutString
 258              	.LVL23:
  77:.\main.c      **** seconds = read2Dig(60);//minutes    
 259              		.loc 1 77 0
 260 0026 3C20     		mov	r0, #60
 261 0028 FFF7FEFF 		bl	read2Dig
 262              	.LVL24:
 263 002c 2060     		str	r0, [r4]
  78:.\main.c      **** reset = true;     
 264              		.loc 1 78 0
 265 002e 0122     		mov	r2, #1
 266 0030 054B     		ldr	r3, .L19+16
 267 0032 1A70     		strb	r2, [r3]
  80:.\main.c      **** }
 268              		.loc 1 80 0
 269              		@ sp needed
 270 0034 10BD     		pop	{r4, pc}
 271              	.L20:
 272 0036 C046     		.align	2
 273              	.L19:
 274 0038 48000000 		.word	.LC6
 275 003c 00000000 		.word	.LANCHOR0
 276 0040 64000000 		.word	.LC9
 277 0044 80000000 		.word	.LC11
 278 0048 00000000 		.word	.LANCHOR1
 279              		.cfi_endproc
 280              	.LFE35:
 281              		.size	InitClk, .-InitClk
 282              		.section	.text.UART_Int,"ax",%progbits
 283              		.align	2
 284              		.global	UART_Int
 285              		.code	16
 286              		.thumb_func
 287              		.type	UART_Int, %function
 288              	UART_Int:
 289              	.LFB36:
  84:.\main.c      **** {
 290              		.loc 1 84 0
 291              		.cfi_startproc
 292 0000 10B5     		push	{r4, lr}
 293              		.cfi_def_cfa_offset 8
 294              		.cfi_offset 4, -8
 295              		.cfi_offset 14, -4
  86:.\main.c      **** rxData = UART_1_UartGetChar(); /* Get character from buffer. */
 296              		.loc 1 86 0
ARM GAS  C:\Users\egh35\AppData\Local\Temp\ccJqjiys.s 			page 9


 297 0002 FFF7FEFF 		bl	UART_1_UartGetChar
 298              	.LVL25:
 299 0006 084C     		ldr	r4, .L23
 300 0008 2060     		str	r0, [r4]
  87:.\main.c      **** UART_1_UartPutChar(rxData); /* Echo back to terminal. */
 301              		.loc 1 87 0
 302 000a FFF7FEFF 		bl	UART_1_SpiUartWriteTxData
 303              	.LVL26:
  88:.\main.c      **** if(rxData == 99){
 304              		.loc 1 88 0
 305 000e 2368     		ldr	r3, [r4]
 306 0010 632B     		cmp	r3, #99
 307 0012 04D1     		bne	.L22
  89:.\main.c      ****     reset = false; 
 308              		.loc 1 89 0
 309 0014 0022     		mov	r2, #0
 310 0016 054B     		ldr	r3, .L23+4
 311 0018 1A70     		strb	r2, [r3]
  90:.\main.c      ****     InitClk();
 312              		.loc 1 90 0
 313 001a FFF7FEFF 		bl	InitClk
 314              	.LVL27:
 315              	.L22:
  98:.\main.c      **** UART_1_ClearRxInterruptSource(UART_1_GetRxInterruptSource());
 316              		.loc 1 98 0
 317 001e 044B     		ldr	r3, .L23+8
 318 0020 1A68     		ldr	r2, [r3]
 319 0022 1A60     		str	r2, [r3]
  99:.\main.c      **** }
 320              		.loc 1 99 0
 321              		@ sp needed
 322 0024 10BD     		pop	{r4, pc}
 323              	.L24:
 324 0026 C046     		.align	2
 325              	.L23:
 326 0028 00000000 		.word	rxData
 327 002c 00000000 		.word	.LANCHOR1
 328 0030 C00F0740 		.word	1074204608
 329              		.cfi_endproc
 330              	.LFE36:
 331              		.size	UART_Int, .-UART_Int
 332              		.section	.text.main,"ax",%progbits
 333              		.align	2
 334              		.global	main
 335              		.code	16
 336              		.thumb_func
 337              		.type	main, %function
 338              	main:
 339              	.LFB38:
 131:.\main.c      **** 
 132:.\main.c      **** 
 133:.\main.c      **** int main(){
 340              		.loc 1 133 0
 341              		.cfi_startproc
 342 0000 F0B5     		push	{r4, r5, r6, r7, lr}
 343              		.cfi_def_cfa_offset 20
 344              		.cfi_offset 4, -20
ARM GAS  C:\Users\egh35\AppData\Local\Temp\ccJqjiys.s 			page 10


 345              		.cfi_offset 5, -16
 346              		.cfi_offset 6, -12
 347              		.cfi_offset 7, -8
 348              		.cfi_offset 14, -4
 349 0002 83B0     		sub	sp, sp, #12
 350              		.cfi_def_cfa_offset 32
 134:.\main.c      **** 
 135:.\main.c      **** CyGlobalIntDisable;
 351              		.loc 1 135 0
 352              	@ 135 ".\main.c" 1
 353 0004 72B6     		CPSID   i
 354              	@ 0 "" 2
 136:.\main.c      ****     
 137:.\main.c      **** UART_Int_StartEx(UART_Int);
 355              		.loc 1 137 0
 356              		.code	16
 357 0006 1648     		ldr	r0, .L28
 358 0008 FFF7FEFF 		bl	UART_Int_StartEx
 359              	.LVL28:
 138:.\main.c      **** timerISR_StartEx(timerISR);
 360              		.loc 1 138 0
 361 000c 1548     		ldr	r0, .L28+4
 362 000e FFF7FEFF 		bl	timerISR_StartEx
 363              	.LVL29:
 139:.\main.c      **** 
 140:.\main.c      **** 
 141:.\main.c      **** CyGlobalIntEnable;
 364              		.loc 1 141 0
 365              	@ 141 ".\main.c" 1
 366 0012 62B6     		CPSIE   i
 367              	@ 0 "" 2
 142:.\main.c      **** ms_acc = 0; 
 368              		.loc 1 142 0
 369              		.code	16
 370 0014 0022     		mov	r2, #0
 371 0016 144B     		ldr	r3, .L28+8
 372 0018 1A60     		str	r2, [r3]
 143:.\main.c      **** 
 144:.\main.c      **** UART_1_Start(); /* Start the UART. */
 373              		.loc 1 144 0
 374 001a FFF7FEFF 		bl	UART_1_Start
 375              	.LVL30:
 145:.\main.c      **** UART_1_UartPutString("Established connection to terminal. \n \r");
 376              		.loc 1 145 0
 377 001e 1348     		ldr	r0, .L28+12
 378 0020 FFF7FEFF 		bl	UART_1_UartPutString
 379              	.LVL31:
 146:.\main.c      **** 
 147:.\main.c      **** 
 148:.\main.c      **** /* Code to initialize wall clock here. */
 149:.\main.c      **** InitClk();
 380              		.loc 1 149 0
 381 0024 FFF7FEFF 		bl	InitClk
 382              	.LVL32:
 150:.\main.c      **** 
 151:.\main.c      **** Timer_1_Start(); /* Start the timer. */
 383              		.loc 1 151 0
ARM GAS  C:\Users\egh35\AppData\Local\Temp\ccJqjiys.s 			page 11


 384 0028 FFF7FEFF 		bl	Timer_1_Start
 385              	.LVL33:
 152:.\main.c      **** 
 153:.\main.c      **** 
 154:.\main.c      **** for(;;)
 155:.\main.c      **** {
 156:.\main.c      **** 
 157:.\main.c      **** if(reset == true){
 386              		.loc 1 157 0
 387 002c 104D     		ldr	r5, .L28+16
 158:.\main.c      **** sprintf(buf, "%02d : %02d : %02d", hours, minutes, seconds);
 388              		.loc 1 158 0
 389 002e 114E     		ldr	r6, .L28+20
 390 0030 114F     		ldr	r7, .L28+24
 391              	.L27:
 157:.\main.c      **** if(reset == true){
 392              		.loc 1 157 0
 393 0032 2B78     		ldrb	r3, [r5]
 394 0034 002B     		cmp	r3, #0
 395 0036 0ED0     		beq	.L26
 396              		.loc 1 158 0
 397 0038 104C     		ldr	r4, .L28+28
 398 003a A268     		ldr	r2, [r4, #8]
 399 003c 6368     		ldr	r3, [r4, #4]
 400 003e 2468     		ldr	r4, [r4]
 401 0040 0094     		str	r4, [sp]
 402 0042 301C     		mov	r0, r6
 403 0044 391C     		mov	r1, r7
 404 0046 FFF7FEFF 		bl	sprintf
 405              	.LVL34:
 159:.\main.c      **** UART_1_UartPutString("\n \r");
 406              		.loc 1 159 0
 407 004a 0D48     		ldr	r0, .L28+32
 408 004c FFF7FEFF 		bl	UART_1_UartPutString
 409              	.LVL35:
 160:.\main.c      **** UART_1_UartPutString(buf);
 410              		.loc 1 160 0
 411 0050 301C     		mov	r0, r6
 412 0052 FFF7FEFF 		bl	UART_1_UartPutString
 413              	.LVL36:
 414              	.L26:
 161:.\main.c      **** }
 162:.\main.c      **** CyDelay(1000);
 415              		.loc 1 162 0
 416 0056 FA20     		mov	r0, #250
 417 0058 8000     		lsl	r0, r0, #2
 418 005a FFF7FEFF 		bl	CyDelay
 419              	.LVL37:
 163:.\main.c      **** 
 164:.\main.c      **** }
 420              		.loc 1 164 0
 421 005e E8E7     		b	.L27
 422              	.L29:
 423              		.align	2
 424              	.L28:
 425 0060 00000000 		.word	UART_Int
 426 0064 00000000 		.word	timerISR
ARM GAS  C:\Users\egh35\AppData\Local\Temp\ccJqjiys.s 			page 12


 427 0068 00000000 		.word	ms_acc
 428 006c 9C000000 		.word	.LC19
 429 0070 00000000 		.word	.LANCHOR1
 430 0074 00000000 		.word	buf
 431 0078 C4000000 		.word	.LC23
 432 007c 00000000 		.word	.LANCHOR0
 433 0080 D8000000 		.word	.LC26
 434              		.cfi_endproc
 435              	.LFE38:
 436              		.size	main, .-main
 437              		.comm	max_value,4,4
 438              		.global	reset
 439              		.comm	rxData,4,4
 440              		.comm	buf,10,4
 441              		.global	hours
 442              		.global	minutes
 443              		.global	seconds
 444              		.comm	ms_acc,4,4
 445              		.data
 446              		.set	.LANCHOR1,. + 0
 447              		.type	reset, %object
 448              		.size	reset, 1
 449              	reset:
 450 0000 01       		.byte	1
 451              		.section	.rodata.str1.4,"aMS",%progbits,1
 452              		.align	2
 453              	.LC2:
 454 0000 256400   		.ascii	"%d\000"
 455 0003 00       		.space	1
 456              	.LC4:
 457 0004 0A200D20 		.ascii	"\012 \015 Error - you have input a value outside th"
 457      4572726F 
 457      72202D20 
 457      796F7520 
 457      68617665 
 458 0031 6520626F 		.ascii	"e bounds. Try again:\000"
 458      756E6473 
 458      2E205472 
 458      79206167 
 458      61696E3A 
 459 0046 0000     		.space	2
 460              	.LC6:
 461 0048 0A200D20 		.ascii	"\012 \015 Enter in hour value:\000"
 461      456E7465 
 461      7220696E 
 461      20686F75 
 461      72207661 
 462 0061 000000   		.space	3
 463              	.LC9:
 464 0064 0A200D20 		.ascii	"\012 \015 Enter in minute value:\000"
 464      456E7465 
 464      7220696E 
 464      206D696E 
 464      75746520 
 465 007f 00       		.space	1
 466              	.LC11:
 467 0080 0A200D20 		.ascii	"\012 \015 Enter in seconds value:\000"
ARM GAS  C:\Users\egh35\AppData\Local\Temp\ccJqjiys.s 			page 13


 467      456E7465 
 467      7220696E 
 467      20736563 
 467      6F6E6473 
 468              	.LC19:
 469 009c 45737461 		.ascii	"Established connection to terminal. \012 \015\000"
 469      626C6973 
 469      68656420 
 469      636F6E6E 
 469      65637469 
 470              	.LC23:
 471 00c4 25303264 		.ascii	"%02d : %02d : %02d\000"
 471      203A2025 
 471      30326420 
 471      3A202530 
 471      326400
 472 00d7 00       		.space	1
 473              	.LC26:
 474 00d8 0A200D00 		.ascii	"\012 \015\000"
 475              		.bss
 476              		.align	2
 477              		.set	.LANCHOR0,. + 0
 478              		.type	seconds, %object
 479              		.size	seconds, 4
 480              	seconds:
 481 0000 00000000 		.space	4
 482              		.type	minutes, %object
 483              		.size	minutes, 4
 484              	minutes:
 485 0004 00000000 		.space	4
 486              		.type	hours, %object
 487              		.size	hours, 4
 488              	hours:
 489 0008 00000000 		.space	4
 490              		.text
 491              	.Letext0:
 492              		.file 2 "Generated_Source\\PSoC4/cytypes.h"
 493              		.file 3 "Generated_Source\\PSoC4/Timer_1.h"
 494              		.file 4 "Generated_Source\\PSoC4/UART_1_SPI_UART.h"
 495              		.file 5 "Generated_Source\\PSoC4/UART_Int.h"
 496              		.file 6 "Generated_Source\\PSoC4/timerISR.h"
 497              		.file 7 "Generated_Source\\PSoC4/UART_1.h"
 498              		.file 8 "c:\\program files (x86)\\cypress\\psoc creator\\3.2\\psoc creator\\import\\gnu\\arm\\4.8.
 499              		.file 9 "Generated_Source\\PSoC4/CyLib.h"