ARM GAS  C:\Users\egh35\AppData\Local\Temp\ccoS5QoE.s 			page 1


   1              		.cpu cortex-m0
   2              		.fpu softvfp
   3              		.eabi_attribute 20, 1
   4              		.eabi_attribute 21, 1
   5              		.eabi_attribute 23, 3
   6              		.eabi_attribute 24, 1
   7              		.eabi_attribute 25, 1
   8              		.eabi_attribute 26, 1
   9              		.eabi_attribute 30, 1
  10              		.eabi_attribute 34, 0
  11              		.eabi_attribute 18, 4
  12              		.code	16
  13              		.file	"main.c"
  14              		.text
  15              	.Ltext0:
  16              		.cfi_sections	.debug_frame
  17              		.section	.text.PrintInt,"ax",%progbits
  18              		.align	2
  19              		.global	PrintInt
  20              		.code	16
  21              		.thumb_func
  22              		.type	PrintInt, %function
  23              	PrintInt:
  24              	.LFB33:
  25              		.file 1 ".\\main.c"
   1:.\main.c      **** /* ========================================
   2:.\main.c      ****  *
   3:.\main.c      ****  * Copyright YOUR COMPANY, THE YEAR
   4:.\main.c      ****  * All Rights Reserved
   5:.\main.c      ****  * UNPUBLISHED, LICENSED SOFTWARE.
   6:.\main.c      ****  *
   7:.\main.c      ****  * CONFIDENTIAL AND PROPRIETARY INFORMATION
   8:.\main.c      ****  * WHICH IS THE PROPERTY OF your company.
   9:.\main.c      ****  *
  10:.\main.c      ****  * ========================================
  11:.\main.c      **** */
  12:.\main.c      **** #include <project.h>
  13:.\main.c      **** #include <stdio.h>
  14:.\main.c      **** 
  15:.\main.c      **** void PrintInt(int b){
  26              		.loc 1 15 0
  27              		.cfi_startproc
  28              	.LVL0:
  29 0000 00B5     		push	{lr}
  30              		.cfi_def_cfa_offset 4
  31              		.cfi_offset 14, -4
  32 0002 85B0     		sub	sp, sp, #20
  33              		.cfi_def_cfa_offset 24
  34 0004 021C     		mov	r2, r0
  16:.\main.c      ****     char buf[10];
  17:.\main.c      ****     sprintf(buf, "%d", b); 
  35              		.loc 1 17 0
  36 0006 01A8     		add	r0, sp, #4
  37              	.LVL1:
  38 0008 0349     		ldr	r1, .L2
  39 000a FFF7FEFF 		bl	sprintf
  40              	.LVL2:
ARM GAS  C:\Users\egh35\AppData\Local\Temp\ccoS5QoE.s 			page 2


  18:.\main.c      ****     UART_1_UartPutString(buf);
  41              		.loc 1 18 0
  42 000e 01A8     		add	r0, sp, #4
  43 0010 FFF7FEFF 		bl	UART_1_UartPutString
  44              	.LVL3:
  19:.\main.c      **** 
  20:.\main.c      **** }
  45              		.loc 1 20 0
  46 0014 05B0     		add	sp, sp, #20
  47              		@ sp needed
  48 0016 00BD     		pop	{pc}
  49              	.L3:
  50              		.align	2
  51              	.L2:
  52 0018 00000000 		.word	.LC0
  53              		.cfi_endproc
  54              	.LFE33:
  55              		.size	PrintInt, .-PrintInt
  56              		.section	.text.readString,"ax",%progbits
  57              		.align	2
  58              		.global	readString
  59              		.code	16
  60              		.thumb_func
  61              		.type	readString, %function
  62              	readString:
  63              	.LFB34:
  21:.\main.c      **** 
  22:.\main.c      **** 
  23:.\main.c      **** 
  24:.\main.c      **** void readString(char *buffer)
  25:.\main.c      **** {
  64              		.loc 1 25 0
  65              		.cfi_startproc
  66              	.LVL4:
  67 0000 38B5     		push	{r3, r4, r5, lr}
  68              		.cfi_def_cfa_offset 16
  69              		.cfi_offset 3, -16
  70              		.cfi_offset 4, -12
  71              		.cfi_offset 5, -8
  72              		.cfi_offset 14, -4
  73 0002 051C     		mov	r5, r0
  74              	.LVL5:
  75              	.L8:
  26:.\main.c      **** uint32 rxData;
  27:.\main.c      **** char *ptr = buffer;
  28:.\main.c      ****     
  29:.\main.c      **** for(;;){
  30:.\main.c      ****     rxData = UART_1_UartGetChar();
  76              		.loc 1 30 0
  77 0004 FFF7FEFF 		bl	UART_1_UartGetChar
  78              	.LVL6:
  79 0008 041E     		sub	r4, r0, #0
  80              	.LVL7:
  31:.\main.c      ****     if(rxData){
  81              		.loc 1 31 0
  82 000a FBD0     		beq	.L8
  32:.\main.c      ****         UART_1_UartPutChar(rxData); /* Echo character. */
ARM GAS  C:\Users\egh35\AppData\Local\Temp\ccoS5QoE.s 			page 3


  83              		.loc 1 32 0
  84 000c FFF7FEFF 		bl	UART_1_SpiUartWriteTxData
  85              	.LVL8:
  33:.\main.c      ****         /* On a carriage return, null terminate the string
  34:.\main.c      ****         and break out of the loop. */
  35:.\main.c      ****         if(rxData == 13){
  86              		.loc 1 35 0
  87 0010 0D2C     		cmp	r4, #13
  88 0012 02D1     		bne	.L6
  36:.\main.c      ****         *ptr = 0;
  89              		.loc 1 36 0
  90 0014 0023     		mov	r3, #0
  91 0016 2B70     		strb	r3, [r5]
  92 0018 02E0     		b	.L9
  93              	.L6:
  37:.\main.c      ****         break;
  38:.\main.c      ****         }
  39:.\main.c      **** *ptr = rxData;
  94              		.loc 1 39 0
  95 001a 2C70     		strb	r4, [r5]
  40:.\main.c      **** ptr++;
  96              		.loc 1 40 0
  97 001c 0135     		add	r5, r5, #1
  98              	.LVL9:
  99 001e F1E7     		b	.L8
 100              	.L9:
  41:.\main.c      **** }
  42:.\main.c      **** }
  43:.\main.c      **** }
 101              		.loc 1 43 0
 102              		@ sp needed
 103              	.LVL10:
 104              	.LVL11:
 105 0020 38BD     		pop	{r3, r4, r5, pc}
 106              		.cfi_endproc
 107              	.LFE34:
 108              		.size	readString, .-readString
 109 0022 C046     		.section	.text.CountWords,"ax",%progbits
 110              		.align	2
 111              		.global	CountWords
 112              		.code	16
 113              		.thumb_func
 114              		.type	CountWords, %function
 115              	CountWords:
 116              	.LFB35:
  44:.\main.c      **** 
  45:.\main.c      **** 
  46:.\main.c      **** int CountWords(char *str1){
 117              		.loc 1 46 0
 118              		.cfi_startproc
 119              	.LVL12:
 120 0000 10B5     		push	{r4, lr}
 121              		.cfi_def_cfa_offset 8
 122              		.cfi_offset 4, -8
 123              		.cfi_offset 14, -4
 124              	.LVL13:
  47:.\main.c      ****     int WordCt = 0; 
ARM GAS  C:\Users\egh35\AppData\Local\Temp\ccoS5QoE.s 			page 4


 125              		.loc 1 47 0
 126 0002 0024     		mov	r4, #0
  48:.\main.c      **** 
  49:.\main.c      **** //while string is not 0
  50:.\main.c      ****     while(*str1 != 0){
 127              		.loc 1 50 0
 128 0004 07E0     		b	.L15
 129              	.LVL14:
 130              	.L14:
  51:.\main.c      ****         //if char is not a space...
  52:.\main.c      ****         if(*str1 != 32){
 131              		.loc 1 52 0
 132 0006 202B     		cmp	r3, #32
 133 0008 05D0     		beq	.L15
  53:.\main.c      ****             //advance...if space, word
  54:.\main.c      ****             str1++;
 134              		.loc 1 54 0
 135 000a 0130     		add	r0, r0, #1
 136              	.LVL15:
  55:.\main.c      ****             if(*str1 == 32){
 137              		.loc 1 55 0
 138 000c 0378     		ldrb	r3, [r0]
 139 000e 202B     		cmp	r3, #32
 140 0010 01D1     		bne	.L15
  56:.\main.c      ****             WordCt++;
 141              		.loc 1 56 0
 142 0012 0134     		add	r4, r4, #1
 143              	.LVL16:
  57:.\main.c      ****             str1++; 
 144              		.loc 1 57 0
 145 0014 0130     		add	r0, r0, #1
 146              	.LVL17:
 147              	.L15:
  50:.\main.c      ****     while(*str1 != 0){
 148              		.loc 1 50 0 discriminator 1
 149 0016 0378     		ldrb	r3, [r0]
 150 0018 002B     		cmp	r3, #0
 151 001a F4D1     		bne	.L14
  58:.\main.c      ****             }
  59:.\main.c      ****         }
  60:.\main.c      ****     }
  61:.\main.c      ****     UART_1_UartPutString("\n \r Your text has ");  
 152              		.loc 1 61 0
 153 001c 0548     		ldr	r0, .L16
 154              	.LVL18:
 155 001e FFF7FEFF 		bl	UART_1_UartPutString
 156              	.LVL19:
  62:.\main.c      ****     PrintInt(WordCt); 
 157              		.loc 1 62 0
 158 0022 201C     		mov	r0, r4
 159 0024 FFF7FEFF 		bl	PrintInt
 160              	.LVL20:
  63:.\main.c      ****     UART_1_UartPutString(" words. "); 
 161              		.loc 1 63 0
 162 0028 0348     		ldr	r0, .L16+4
 163 002a FFF7FEFF 		bl	UART_1_UartPutString
 164              	.LVL21:
ARM GAS  C:\Users\egh35\AppData\Local\Temp\ccoS5QoE.s 			page 5


  64:.\main.c      ****     return WordCt; 
  65:.\main.c      ****     
  66:.\main.c      ****     
  67:.\main.c      **** }
 165              		.loc 1 67 0
 166 002e 201C     		mov	r0, r4
 167              		@ sp needed
 168              	.LVL22:
 169 0030 10BD     		pop	{r4, pc}
 170              	.L17:
 171 0032 C046     		.align	2
 172              	.L16:
 173 0034 04000000 		.word	.LC2
 174 0038 18000000 		.word	.LC4
 175              		.cfi_endproc
 176              	.LFE35:
 177              		.size	CountWords, .-CountWords
 178              		.section	.text.LongWords,"ax",%progbits
 179              		.align	2
 180              		.global	LongWords
 181              		.code	16
 182              		.thumb_func
 183              		.type	LongWords, %function
 184              	LongWords:
 185              	.LFB36:
  68:.\main.c      **** 
  69:.\main.c      **** 
  70:.\main.c      **** void LongWords(char *str1, int WD_CT){
 186              		.loc 1 70 0
 187              		.cfi_startproc
 188              	.LVL23:
 189 0000 F0B5     		push	{r4, r5, r6, r7, lr}
 190              		.cfi_def_cfa_offset 20
 191              		.cfi_offset 4, -20
 192              		.cfi_offset 5, -16
 193              		.cfi_offset 6, -12
 194              		.cfi_offset 7, -8
 195              		.cfi_offset 14, -4
 196 0002 4746     		mov	r7, r8
 197 0004 80B4     		push	{r7}
 198              		.cfi_def_cfa_offset 24
 199              		.cfi_offset 8, -24
 200 0006 00AF     		add	r7, sp, #0
 201              		.cfi_def_cfa_register 7
 202 0008 0E1C     		mov	r6, r1
 203              	.LVL24:
  71:.\main.c      ****     int WordLet[WD_CT];
 204              		.loc 1 71 0
 205 000a 8B00     		lsl	r3, r1, #2
 206 000c 0A33     		add	r3, r3, #10
 207 000e DB08     		lsr	r3, r3, #3
 208 0010 DB00     		lsl	r3, r3, #3
 209 0012 6A46     		mov	r2, sp
 210 0014 D21A     		sub	r2, r2, r3
 211 0016 9546     		mov	sp, r2
 212 0018 6D46     		mov	r5, sp
 213              	.LVL25:
ARM GAS  C:\Users\egh35\AppData\Local\Temp\ccoS5QoE.s 			page 6


  72:.\main.c      ****     int pos = 0; 
  73:.\main.c      ****     int WD_LN = 0;
 214              		.loc 1 73 0
 215 001a 0022     		mov	r2, #0
 216              	.LVL26:
  72:.\main.c      ****     int pos = 0; 
 217              		.loc 1 72 0
 218 001c 0021     		mov	r1, #0
 219              	.LVL27:
  74:.\main.c      ****     
  75:.\main.c      ****     //store length of words in array as long as word count
  76:.\main.c      ****     while(*str1 != 0){
  77:.\main.c      ****         if(*str1 != 32){
  78:.\main.c      ****             WD_LN++;
  79:.\main.c      ****         }
  80:.\main.c      ****         
  81:.\main.c      ****         if(*str1 == 32){
  82:.\main.c      ****             WordLet[pos] = WD_LN;
  83:.\main.c      ****             pos++;
  84:.\main.c      ****             WD_LN = 0; 
 220              		.loc 1 84 0
 221 001e 0024     		mov	r4, #0
  76:.\main.c      ****     while(*str1 != 0){
 222              		.loc 1 76 0
 223 0020 09E0     		b	.L19
 224              	.LVL28:
 225              	.L22:
  77:.\main.c      ****         if(*str1 != 32){
 226              		.loc 1 77 0
 227 0022 202B     		cmp	r3, #32
 228 0024 00D0     		beq	.L20
  78:.\main.c      ****             WD_LN++;
 229              		.loc 1 78 0
 230 0026 0132     		add	r2, r2, #1
 231              	.LVL29:
 232              	.L20:
  81:.\main.c      ****         if(*str1 == 32){
 233              		.loc 1 81 0
 234 0028 202B     		cmp	r3, #32
 235 002a 03D1     		bne	.L21
  82:.\main.c      ****             WordLet[pos] = WD_LN;
 236              		.loc 1 82 0
 237 002c 8B00     		lsl	r3, r1, #2
 238 002e 5A51     		str	r2, [r3, r5]
  83:.\main.c      ****             pos++;
 239              		.loc 1 83 0
 240 0030 0131     		add	r1, r1, #1
 241              	.LVL30:
 242              		.loc 1 84 0
 243 0032 221C     		mov	r2, r4
 244              	.LVL31:
 245              	.L21:
  85:.\main.c      ****         }
  86:.\main.c      ****         str1++;
 246              		.loc 1 86 0
 247 0034 0130     		add	r0, r0, #1
 248              	.LVL32:
ARM GAS  C:\Users\egh35\AppData\Local\Temp\ccoS5QoE.s 			page 7


 249              	.L19:
  76:.\main.c      ****     while(*str1 != 0){
 250              		.loc 1 76 0 discriminator 1
 251 0036 0378     		ldrb	r3, [r0]
 252 0038 002B     		cmp	r3, #0
 253 003a F2D1     		bne	.L22
 254 003c 0024     		mov	r4, #0
  87:.\main.c      ****     }
  88:.\main.c      **** //print number of letters in each word     
  89:.\main.c      ****   for (pos = 0; pos < WD_CT; pos++)
  90:.\main.c      ****   {
  91:.\main.c      ****   PrintInt(WordLet[pos]);
  92:.\main.c      ****   UART_1_UartPutString("  "); 
 255              		.loc 1 92 0
 256 003e 154B     		ldr	r3, .L28
 257 0040 9846     		mov	r8, r3
 258 0042 07E0     		b	.L23
 259              	.LVL33:
 260              	.L24:
  91:.\main.c      ****   PrintInt(WordLet[pos]);
 261              		.loc 1 91 0 discriminator 2
 262 0044 A300     		lsl	r3, r4, #2
 263 0046 5859     		ldr	r0, [r3, r5]
 264 0048 FFF7FEFF 		bl	PrintInt
 265              	.LVL34:
 266              		.loc 1 92 0 discriminator 2
 267 004c 4046     		mov	r0, r8
 268 004e FFF7FEFF 		bl	UART_1_UartPutString
 269              	.LVL35:
  89:.\main.c      ****   for (pos = 0; pos < WD_CT; pos++)
 270              		.loc 1 89 0 discriminator 2
 271 0052 0134     		add	r4, r4, #1
 272              	.LVL36:
 273              	.L23:
  89:.\main.c      ****   for (pos = 0; pos < WD_CT; pos++)
 274              		.loc 1 89 0 is_stmt 0 discriminator 1
 275 0054 B442     		cmp	r4, r6
 276 0056 F5DB     		blt	.L24
  93:.\main.c      ****   }    
  94:.\main.c      **** 
  95:.\main.c      ****     
  96:.\main.c      ****     //find max value from array
  97:.\main.c      ****   int max = WordLet[0];
 277              		.loc 1 97 0 is_stmt 1
 278 0058 2968     		ldr	r1, [r5]
 279              	.LVL37:
  98:.\main.c      ****   int max_loc = 0; 
 280              		.loc 1 98 0
 281 005a 0020     		mov	r0, #0
  99:.\main.c      **** 
 100:.\main.c      ****   for (pos = 1; pos < WD_CT; pos++)
 282              		.loc 1 100 0
 283 005c 0123     		mov	r3, #1
 284 005e 06E0     		b	.L25
 285              	.LVL38:
 286              	.L27:
 101:.\main.c      ****   {
ARM GAS  C:\Users\egh35\AppData\Local\Temp\ccoS5QoE.s 			page 8


 102:.\main.c      ****     if (WordLet[pos] > max)
 287              		.loc 1 102 0
 288 0060 9A00     		lsl	r2, r3, #2
 289 0062 5259     		ldr	r2, [r2, r5]
 290 0064 8A42     		cmp	r2, r1
 291 0066 01DD     		ble	.L26
 292              	.LVL39:
 103:.\main.c      ****     {
 104:.\main.c      ****        max  = WordLet[pos];
 105:.\main.c      ****        max_loc = pos+1;
 293              		.loc 1 105 0
 294 0068 581C     		add	r0, r3, #1
 295              	.LVL40:
 104:.\main.c      ****        max  = WordLet[pos];
 296              		.loc 1 104 0
 297 006a 111C     		mov	r1, r2
 298              	.LVL41:
 299              	.L26:
 100:.\main.c      ****   for (pos = 1; pos < WD_CT; pos++)
 300              		.loc 1 100 0
 301 006c 0133     		add	r3, r3, #1
 302              	.LVL42:
 303              	.L25:
 100:.\main.c      ****   for (pos = 1; pos < WD_CT; pos++)
 304              		.loc 1 100 0 is_stmt 0 discriminator 1
 305 006e B342     		cmp	r3, r6
 306 0070 F6DB     		blt	.L27
 106:.\main.c      ****     }
 107:.\main.c      ****   }
 108:.\main.c      ****   int maximum = WordLet[max_loc - 1];
 307              		.loc 1 108 0 is_stmt 1
 308 0072 0138     		sub	r0, r0, #1
 309              	.LVL43:
 310 0074 8000     		lsl	r0, r0, #2
 311              	.LVL44:
 312 0076 4459     		ldr	r4, [r0, r5]
 313              	.LVL45:
 109:.\main.c      ****     UART_1_UartPutString("\n \r Your longest word has ");  
 314              		.loc 1 109 0
 315 0078 0748     		ldr	r0, .L28+4
 316 007a FFF7FEFF 		bl	UART_1_UartPutString
 317              	.LVL46:
 110:.\main.c      ****     PrintInt(maximum);
 318              		.loc 1 110 0
 319 007e 201C     		mov	r0, r4
 320 0080 FFF7FEFF 		bl	PrintInt
 321              	.LVL47:
 111:.\main.c      ****     UART_1_UartPutString(" letters. ");  
 322              		.loc 1 111 0
 323 0084 0548     		ldr	r0, .L28+8
 324 0086 FFF7FEFF 		bl	UART_1_UartPutString
 325              	.LVL48:
 112:.\main.c      ****     
 113:.\main.c      ****     
 114:.\main.c      ****     
 115:.\main.c      **** }
 326              		.loc 1 115 0
ARM GAS  C:\Users\egh35\AppData\Local\Temp\ccoS5QoE.s 			page 9


 327 008a BD46     		mov	sp, r7
 328              		@ sp needed
 329              	.LVL49:
 330              	.LVL50:
 331              	.LVL51:
 332 008c 04BC     		pop	{r2}
 333 008e 9046     		mov	r8, r2
 334 0090 F0BD     		pop	{r4, r5, r6, r7, pc}
 335              	.L29:
 336 0092 C046     		.align	2
 337              	.L28:
 338 0094 24000000 		.word	.LC6
 339 0098 28000000 		.word	.LC8
 340 009c 44000000 		.word	.LC10
 341              		.cfi_endproc
 342              	.LFE36:
 343              		.size	LongWords, .-LongWords
 344              		.section	.text.VowelWords,"ax",%progbits
 345              		.align	2
 346              		.global	VowelWords
 347              		.code	16
 348              		.thumb_func
 349              		.type	VowelWords, %function
 350              	VowelWords:
 351              	.LFB37:
 116:.\main.c      **** 
 117:.\main.c      **** 
 118:.\main.c      **** void VowelWords(char *str1, int WD_CT){
 352              		.loc 1 118 0
 353              		.cfi_startproc
 354              	.LVL52:
 355 0000 F8B5     		push	{r3, r4, r5, r6, r7, lr}
 356              		.cfi_def_cfa_offset 24
 357              		.cfi_offset 3, -24
 358              		.cfi_offset 4, -20
 359              		.cfi_offset 5, -16
 360              		.cfi_offset 6, -12
 361              		.cfi_offset 7, -8
 362              		.cfi_offset 14, -4
 363 0002 5F46     		mov	r7, fp
 364 0004 5646     		mov	r6, r10
 365 0006 4D46     		mov	r5, r9
 366 0008 4446     		mov	r4, r8
 367 000a F0B4     		push	{r4, r5, r6, r7}
 368              		.cfi_def_cfa_offset 40
 369              		.cfi_offset 8, -40
 370              		.cfi_offset 9, -36
 371              		.cfi_offset 10, -32
 372              		.cfi_offset 11, -28
 373 000c 00AF     		add	r7, sp, #0
 374              		.cfi_def_cfa_register 7
 375 000e 0E1C     		mov	r6, r1
 376              	.LVL53:
 119:.\main.c      ****  int VowLet[WD_CT];
 377              		.loc 1 119 0
 378 0010 8B00     		lsl	r3, r1, #2
 379 0012 0A33     		add	r3, r3, #10
ARM GAS  C:\Users\egh35\AppData\Local\Temp\ccoS5QoE.s 			page 10


 380 0014 DB08     		lsr	r3, r3, #3
 381 0016 DB00     		lsl	r3, r3, #3
 382 0018 6946     		mov	r1, sp
 383              	.LVL54:
 384 001a C91A     		sub	r1, r1, r3
 385 001c 8D46     		mov	sp, r1
 386 001e 6D46     		mov	r5, sp
 387              	.LVL55:
 120:.\main.c      ****     int pos = 0; 
 121:.\main.c      ****     int VW_CT = 0;
 388              		.loc 1 121 0
 389 0020 0022     		mov	r2, #0
 390 0022 9346     		mov	fp, r2
 120:.\main.c      ****     int pos = 0; 
 391              		.loc 1 120 0
 392 0024 9446     		mov	ip, r2
 122:.\main.c      ****     
 123:.\main.c      ****     //store length of words in array as long as word count
 124:.\main.c      ****     while(*str1 != 0){
 125:.\main.c      ****         if((*str1 == 65) | (*str1 == 97) //A, a 
 126:.\main.c      ****          | (*str1 == 69) | (*str1 == 101) // E, e
 127:.\main.c      ****          | (*str1 == 73) | (*str1 == 105) // I, i
 128:.\main.c      ****          | (*str1 == 79) | (*str1 == 111) // O, o
 129:.\main.c      ****          | (*str1 == 85) | (*str1 == 117)){  //U, u
 130:.\main.c      ****             VW_CT++;
 131:.\main.c      ****         }        
 132:.\main.c      ****         if(*str1 == 32){
 133:.\main.c      ****             VowLet[pos] = VW_CT;
 134:.\main.c      ****             pos++;
 135:.\main.c      ****             VW_CT = 0; 
 393              		.loc 1 135 0
 394 0026 9046     		mov	r8, r2
 124:.\main.c      ****     while(*str1 != 0){
 395              		.loc 1 124 0
 396 0028 46E0     		b	.L31
 397              	.LVL56:
 398              	.L34:
 125:.\main.c      ****         if((*str1 == 65) | (*str1 == 97) //A, a 
 399              		.loc 1 125 0
 400 002a 1A1C     		mov	r2, r3
 401 002c 413A     		sub	r2, r2, #65
 402 002e 5142     		neg	r1, r2
 403 0030 4A41     		adc	r2, r2, r1
 404 0032 6121     		mov	r1, #97
 405 0034 4942     		neg	r1, r1
 406 0036 C918     		add	r1, r1, r3
 407 0038 4C42     		neg	r4, r1
 408 003a 4C41     		adc	r4, r4, r1
 409 003c 2243     		orr	r2, r4
 126:.\main.c      ****          | (*str1 == 69) | (*str1 == 101) // E, e
 410              		.loc 1 126 0
 411 003e 4521     		mov	r1, #69
 412 0040 4942     		neg	r1, r1
 413 0042 C918     		add	r1, r1, r3
 414 0044 4C42     		neg	r4, r1
 415 0046 4C41     		adc	r4, r4, r1
 416 0048 2243     		orr	r2, r4
ARM GAS  C:\Users\egh35\AppData\Local\Temp\ccoS5QoE.s 			page 11


 417 004a 6521     		mov	r1, #101
 418 004c 4942     		neg	r1, r1
 419 004e C918     		add	r1, r1, r3
 420 0050 4C42     		neg	r4, r1
 421 0052 4C41     		adc	r4, r4, r1
 422 0054 2243     		orr	r2, r4
 127:.\main.c      ****          | (*str1 == 73) | (*str1 == 105) // I, i
 423              		.loc 1 127 0
 424 0056 4921     		mov	r1, #73
 425 0058 4942     		neg	r1, r1
 426 005a C918     		add	r1, r1, r3
 427 005c 4C42     		neg	r4, r1
 428 005e 4C41     		adc	r4, r4, r1
 429 0060 2243     		orr	r2, r4
 430 0062 6921     		mov	r1, #105
 431 0064 4942     		neg	r1, r1
 432 0066 C918     		add	r1, r1, r3
 433 0068 4C42     		neg	r4, r1
 434 006a 4C41     		adc	r4, r4, r1
 435 006c 2243     		orr	r2, r4
 128:.\main.c      ****          | (*str1 == 79) | (*str1 == 111) // O, o
 436              		.loc 1 128 0
 437 006e 4F21     		mov	r1, #79
 438 0070 4942     		neg	r1, r1
 439 0072 C918     		add	r1, r1, r3
 440 0074 4C42     		neg	r4, r1
 441 0076 4C41     		adc	r4, r4, r1
 442 0078 2243     		orr	r2, r4
 443 007a 6F21     		mov	r1, #111
 444 007c 4942     		neg	r1, r1
 445 007e C918     		add	r1, r1, r3
 446 0080 4C42     		neg	r4, r1
 447 0082 4C41     		adc	r4, r4, r1
 448 0084 2243     		orr	r2, r4
 129:.\main.c      ****          | (*str1 == 85) | (*str1 == 117)){  //U, u
 449              		.loc 1 129 0
 450 0086 5521     		mov	r1, #85
 451 0088 4942     		neg	r1, r1
 452 008a C918     		add	r1, r1, r3
 453 008c 4C42     		neg	r4, r1
 454 008e 4C41     		adc	r4, r4, r1
 455 0090 2243     		orr	r2, r4
 456 0092 7521     		mov	r1, #117
 457 0094 4942     		neg	r1, r1
 458 0096 C918     		add	r1, r1, r3
 459 0098 4C42     		neg	r4, r1
 460 009a 4C41     		adc	r4, r4, r1
 461 009c 2243     		orr	r2, r4
 125:.\main.c      ****         if((*str1 == 65) | (*str1 == 97) //A, a 
 462              		.loc 1 125 0
 463 009e 01D0     		beq	.L32
 130:.\main.c      ****             VW_CT++;
 464              		.loc 1 130 0
 465 00a0 0121     		mov	r1, #1
 466 00a2 8B44     		add	fp, fp, r1
 467              	.LVL57:
 468              	.L32:
ARM GAS  C:\Users\egh35\AppData\Local\Temp\ccoS5QoE.s 			page 12


 132:.\main.c      ****         if(*str1 == 32){
 469              		.loc 1 132 0
 470 00a4 202B     		cmp	r3, #32
 471 00a6 06D1     		bne	.L33
 133:.\main.c      ****             VowLet[pos] = VW_CT;
 472              		.loc 1 133 0
 473 00a8 6246     		mov	r2, ip
 474 00aa 9300     		lsl	r3, r2, #2
 475 00ac 5C46     		mov	r4, fp
 476 00ae 5C51     		str	r4, [r3, r5]
 134:.\main.c      ****             pos++;
 477              		.loc 1 134 0
 478 00b0 0121     		mov	r1, #1
 479 00b2 8C44     		add	ip, ip, r1
 480              	.LVL58:
 481              		.loc 1 135 0
 482 00b4 C346     		mov	fp, r8
 483              	.LVL59:
 484              	.L33:
 136:.\main.c      ****         }
 137:.\main.c      ****         str1++;
 485              		.loc 1 137 0
 486 00b6 0130     		add	r0, r0, #1
 487              	.LVL60:
 488              	.L31:
 124:.\main.c      ****     while(*str1 != 0){
 489              		.loc 1 124 0 discriminator 1
 490 00b8 0378     		ldrb	r3, [r0]
 491 00ba 002B     		cmp	r3, #0
 492 00bc B5D1     		bne	.L34
 493 00be 0024     		mov	r4, #0
 138:.\main.c      ****     }
 139:.\main.c      ****     
 140:.\main.c      ****     
 141:.\main.c      ****   for (pos = 0; pos < WD_CT; pos++)
 142:.\main.c      ****   {
 143:.\main.c      ****   PrintInt(VowLet[pos]);
 144:.\main.c      ****   UART_1_UartPutString("  "); 
 494              		.loc 1 144 0
 495 00c0 194A     		ldr	r2, .L40
 496 00c2 9046     		mov	r8, r2
 497 00c4 07E0     		b	.L35
 498              	.LVL61:
 499              	.L36:
 143:.\main.c      ****   PrintInt(VowLet[pos]);
 500              		.loc 1 143 0 discriminator 2
 501 00c6 A300     		lsl	r3, r4, #2
 502 00c8 5859     		ldr	r0, [r3, r5]
 503 00ca FFF7FEFF 		bl	PrintInt
 504              	.LVL62:
 505              		.loc 1 144 0 discriminator 2
 506 00ce 4046     		mov	r0, r8
 507 00d0 FFF7FEFF 		bl	UART_1_UartPutString
 508              	.LVL63:
 141:.\main.c      ****   for (pos = 0; pos < WD_CT; pos++)
 509              		.loc 1 141 0 discriminator 2
 510 00d4 0134     		add	r4, r4, #1
ARM GAS  C:\Users\egh35\AppData\Local\Temp\ccoS5QoE.s 			page 13


 511              	.LVL64:
 512              	.L35:
 141:.\main.c      ****   for (pos = 0; pos < WD_CT; pos++)
 513              		.loc 1 141 0 is_stmt 0 discriminator 1
 514 00d6 B442     		cmp	r4, r6
 515 00d8 F5DB     		blt	.L36
 145:.\main.c      ****   }    
 146:.\main.c      **** 
 147:.\main.c      ****   int max = VowLet[0];
 516              		.loc 1 147 0 is_stmt 1
 517 00da 2968     		ldr	r1, [r5]
 518              	.LVL65:
 148:.\main.c      ****   int max_loc = 0; 
 519              		.loc 1 148 0
 520 00dc 0024     		mov	r4, #0
 149:.\main.c      **** 
 150:.\main.c      ****   for (pos = 1; pos < WD_CT; pos++)
 521              		.loc 1 150 0
 522 00de 0123     		mov	r3, #1
 523 00e0 06E0     		b	.L37
 524              	.LVL66:
 525              	.L39:
 151:.\main.c      ****   {
 152:.\main.c      ****     if (VowLet[pos] > max)
 526              		.loc 1 152 0
 527 00e2 9A00     		lsl	r2, r3, #2
 528 00e4 5259     		ldr	r2, [r2, r5]
 529 00e6 8A42     		cmp	r2, r1
 530 00e8 01DD     		ble	.L38
 531              	.LVL67:
 153:.\main.c      ****     {
 154:.\main.c      ****        max  = VowLet[pos];
 155:.\main.c      ****        max_loc = pos+1;
 532              		.loc 1 155 0
 533 00ea 5C1C     		add	r4, r3, #1
 534              	.LVL68:
 154:.\main.c      ****        max  = VowLet[pos];
 535              		.loc 1 154 0
 536 00ec 111C     		mov	r1, r2
 537              	.LVL69:
 538              	.L38:
 150:.\main.c      ****   for (pos = 1; pos < WD_CT; pos++)
 539              		.loc 1 150 0
 540 00ee 0133     		add	r3, r3, #1
 541              	.LVL70:
 542              	.L37:
 150:.\main.c      ****   for (pos = 1; pos < WD_CT; pos++)
 543              		.loc 1 150 0 is_stmt 0 discriminator 1
 544 00f0 B342     		cmp	r3, r6
 545 00f2 F6DB     		blt	.L39
 156:.\main.c      ****     }
 157:.\main.c      ****   }
 158:.\main.c      ****   int maximum = VowLet[max_loc - 1];
 546              		.loc 1 158 0 is_stmt 1
 547 00f4 631E     		sub	r3, r4, #1
 548              	.LVL71:
 549 00f6 9B00     		lsl	r3, r3, #2
ARM GAS  C:\Users\egh35\AppData\Local\Temp\ccoS5QoE.s 			page 14


 550 00f8 5D59     		ldr	r5, [r3, r5]
 551              	.LVL72:
 159:.\main.c      ****     UART_1_UartPutString("\n \r Word ");  
 552              		.loc 1 159 0
 553 00fa 0C48     		ldr	r0, .L40+4
 554 00fc FFF7FEFF 		bl	UART_1_UartPutString
 555              	.LVL73:
 160:.\main.c      ****     PrintInt(max_loc);
 556              		.loc 1 160 0
 557 0100 201C     		mov	r0, r4
 558 0102 FFF7FEFF 		bl	PrintInt
 559              	.LVL74:
 161:.\main.c      ****     UART_1_UartPutString(" has the most vowels. It has ");  
 560              		.loc 1 161 0
 561 0106 0A48     		ldr	r0, .L40+8
 562 0108 FFF7FEFF 		bl	UART_1_UartPutString
 563              	.LVL75:
 162:.\main.c      ****     PrintInt(maximum);
 564              		.loc 1 162 0
 565 010c 281C     		mov	r0, r5
 566 010e FFF7FEFF 		bl	PrintInt
 567              	.LVL76:
 163:.\main.c      ****     UART_1_UartPutString(". \n \r ");
 568              		.loc 1 163 0
 569 0112 0848     		ldr	r0, .L40+12
 570 0114 FFF7FEFF 		bl	UART_1_UartPutString
 571              	.LVL77:
 164:.\main.c      ****     
 165:.\main.c      ****     
 166:.\main.c      **** }
 572              		.loc 1 166 0
 573 0118 BD46     		mov	sp, r7
 574              	.LVL78:
 575              		@ sp needed
 576              	.LVL79:
 577              	.LVL80:
 578              	.LVL81:
 579              	.LVL82:
 580 011a 3CBC     		pop	{r2, r3, r4, r5}
 581 011c 9046     		mov	r8, r2
 582 011e 9946     		mov	r9, r3
 583 0120 A246     		mov	r10, r4
 584 0122 AB46     		mov	fp, r5
 585 0124 F8BD     		pop	{r3, r4, r5, r6, r7, pc}
 586              	.L41:
 587 0126 C046     		.align	2
 588              	.L40:
 589 0128 24000000 		.word	.LC6
 590 012c 50000000 		.word	.LC13
 591 0130 5C000000 		.word	.LC15
 592 0134 7C000000 		.word	.LC17
 593              		.cfi_endproc
 594              	.LFE37:
 595              		.size	VowelWords, .-VowelWords
 596              		.section	.text.main,"ax",%progbits
 597              		.align	2
 598              		.global	main
ARM GAS  C:\Users\egh35\AppData\Local\Temp\ccoS5QoE.s 			page 15


 599              		.code	16
 600              		.thumb_func
 601              		.type	main, %function
 602              	main:
 603              	.LFB38:
 167:.\main.c      **** 
 168:.\main.c      **** 
 169:.\main.c      **** 
 170:.\main.c      **** 
 171:.\main.c      **** 
 172:.\main.c      **** 
 173:.\main.c      **** int main()
 174:.\main.c      **** {
 604              		.loc 1 174 0
 605              		.cfi_startproc
 606 0000 10B5     		push	{r4, lr}
 607              		.cfi_def_cfa_offset 8
 608              		.cfi_offset 4, -8
 609              		.cfi_offset 14, -4
 610 0002 86B0     		sub	sp, sp, #24
 611              		.cfi_def_cfa_offset 32
 175:.\main.c      ****     CyGlobalIntEnable; /* Enable global interrupts. */
 612              		.loc 1 175 0
 613              	@ 175 ".\main.c" 1
 614 0004 62B6     		CPSIE   i
 615              	@ 0 "" 2
 176:.\main.c      ****     UART_1_Start(); /* Start the UART component. */
 616              		.loc 1 176 0
 617              		.code	16
 618 0006 FFF7FEFF 		bl	UART_1_Start
 619              	.LVL83:
 177:.\main.c      ****     int WordCount = 0;
 178:.\main.c      ****     int MAX_BUFFER_SIZE = 20; 
 179:.\main.c      ****     char str1[MAX_BUFFER_SIZE];
 180:.\main.c      ****     
 181:.\main.c      ****     
 182:.\main.c      ****     UART_1_UartPutString("\n \r Enter in a line of text.");    
 620              		.loc 1 182 0
 621 000a 0A48     		ldr	r0, .L43
 622 000c FFF7FEFF 		bl	UART_1_UartPutString
 623              	.LVL84:
 183:.\main.c      ****     readString(str1);
 624              		.loc 1 183 0
 625 0010 01A8     		add	r0, sp, #4
 626              	.LVL85:
 627 0012 FFF7FEFF 		bl	readString
 628              	.LVL86:
 184:.\main.c      ****     WordCount = CountWords(str1);
 629              		.loc 1 184 0
 630 0016 01A8     		add	r0, sp, #4
 631              	.LVL87:
 632 0018 FFF7FEFF 		bl	CountWords
 633              	.LVL88:
 634 001c 041C     		mov	r4, r0
 635              	.LVL89:
 185:.\main.c      ****     LongWords(str1, WordCount);
 636              		.loc 1 185 0
ARM GAS  C:\Users\egh35\AppData\Local\Temp\ccoS5QoE.s 			page 16


 637 001e 01A8     		add	r0, sp, #4
 638              	.LVL90:
 639 0020 211C     		mov	r1, r4
 640 0022 FFF7FEFF 		bl	LongWords
 641              	.LVL91:
 186:.\main.c      ****     VowelWords(str1, WordCount);
 642              		.loc 1 186 0
 643 0026 01A8     		add	r0, sp, #4
 644              	.LVL92:
 645 0028 211C     		mov	r1, r4
 646 002a FFF7FEFF 		bl	VowelWords
 647              	.LVL93:
 187:.\main.c      ****     
 188:.\main.c      **** }
 648              		.loc 1 188 0
 649 002e 06B0     		add	sp, sp, #24
 650              		@ sp needed
 651              	.LVL94:
 652 0030 10BD     		pop	{r4, pc}
 653              	.L44:
 654 0032 C046     		.align	2
 655              	.L43:
 656 0034 84000000 		.word	.LC19
 657              		.cfi_endproc
 658              	.LFE38:
 659              		.size	main, .-main
 660              		.section	.rodata.str1.4,"aMS",%progbits,1
 661              		.align	2
 662              	.LC0:
 663 0000 256400   		.ascii	"%d\000"
 664 0003 00       		.space	1
 665              	.LC2:
 666 0004 0A200D20 		.ascii	"\012 \015 Your text has \000"
 666      596F7572 
 666      20746578 
 666      74206861 
 666      732000
 667 0017 00       		.space	1
 668              	.LC4:
 669 0018 20776F72 		.ascii	" words. \000"
 669      64732E20 
 669      00
 670 0021 000000   		.space	3
 671              	.LC6:
 672 0024 202000   		.ascii	"  \000"
 673 0027 00       		.space	1
 674              	.LC8:
 675 0028 0A200D20 		.ascii	"\012 \015 Your longest word has \000"
 675      596F7572 
 675      206C6F6E 
 675      67657374 
 675      20776F72 
 676 0043 00       		.space	1
 677              	.LC10:
 678 0044 206C6574 		.ascii	" letters. \000"
 678      74657273 
 678      2E2000
ARM GAS  C:\Users\egh35\AppData\Local\Temp\ccoS5QoE.s 			page 17


 679 004f 00       		.space	1
 680              	.LC13:
 681 0050 0A200D20 		.ascii	"\012 \015 Word \000"
 681      576F7264 
 681      2000
 682 005a 0000     		.space	2
 683              	.LC15:
 684 005c 20686173 		.ascii	" has the most vowels. It has \000"
 684      20746865 
 684      206D6F73 
 684      7420766F 
 684      77656C73 
 685 007a 0000     		.space	2
 686              	.LC17:
 687 007c 2E200A20 		.ascii	". \012 \015 \000"
 687      0D2000
 688 0083 00       		.space	1
 689              	.LC19:
 690 0084 0A200D20 		.ascii	"\012 \015 Enter in a line of text.\000"
 690      456E7465 
 690      7220696E 
 690      2061206C 
 690      696E6520 
 691 00a1 000000   		.text
 692              	.Letext0:
 693              		.file 2 "Generated_Source\\PSoC4/cytypes.h"
 694              		.file 3 "Generated_Source\\PSoC4/UART_1_SPI_UART.h"
 695              		.file 4 "c:\\program files (x86)\\cypress\\psoc creator\\3.2\\psoc creator\\import\\gnu\\arm\\4.8.
 696              		.file 5 "Generated_Source\\PSoC4/UART_1.h"