ARM GAS  C:\Users\egh35\AppData\Local\Temp\ccYkSaHX.s 			page 1


   1              		.cpu cortex-m0
   2              		.fpu softvfp
   3              		.eabi_attribute 20, 1
   4              		.eabi_attribute 21, 1
   5              		.eabi_attribute 23, 3
   6              		.eabi_attribute 24, 1
   7              		.eabi_attribute 25, 1
   8              		.eabi_attribute 26, 1
   9              		.eabi_attribute 30, 1
  10              		.eabi_attribute 34, 0
  11              		.eabi_attribute 18, 4
  12              		.code	16
  13              		.file	"main.c"
  14              		.text
  15              	.Ltext0:
  16              		.cfi_sections	.debug_frame
  17              		.section	.text.SW_Int,"ax",%progbits
  18              		.align	2
  19              		.global	SW_Int
  20              		.code	16
  21              		.thumb_func
  22              		.type	SW_Int, %function
  23              	SW_Int:
  24              	.LFB34:
  25              		.file 1 ".\\main.c"
   1:.\main.c      **** /* ========================================
   2:.\main.c      ****  *
   3:.\main.c      ****  * Copyright YOUR COMPANY, THE YEAR
   4:.\main.c      ****  * All Rights Reserved
   5:.\main.c      ****  * UNPUBLISHED, LICENSED SOFTWARE.
   6:.\main.c      ****  *
   7:.\main.c      ****  * CONFIDENTIAL AND PROPRIETARY INFORMATION
   8:.\main.c      ****  * WHICH IS THE PROPERTY OF your company.
   9:.\main.c      ****  *
  10:.\main.c      ****  * ========================================
  11:.\main.c      **** */
  12:.\main.c      **** #include <project.h>
  13:.\main.c      **** 
  14:.\main.c      **** 
  15:.\main.c      **** int press = 0; 
  16:.\main.c      **** int tc_1, tc_2;
  17:.\main.c      **** int time; 
  18:.\main.c      **** 
  19:.\main.c      **** void PrintInt(int b){
  20:.\main.c      ****     char buf[10];
  21:.\main.c      ****     sprintf(buf, "%d", b); 
  22:.\main.c      ****     UART_1_UartPutString(buf);
  23:.\main.c      **** 
  24:.\main.c      **** }
  25:.\main.c      **** 
  26:.\main.c      **** 
  27:.\main.c      **** 
  28:.\main.c      **** CY_ISR(SW_Int){
  26              		.loc 1 28 0
  27              		.cfi_startproc
  28 0000 10B5     		push	{r4, lr}
  29              		.cfi_def_cfa_offset 8
ARM GAS  C:\Users\egh35\AppData\Local\Temp\ccYkSaHX.s 			page 2


  30              		.cfi_offset 4, -8
  31              		.cfi_offset 14, -4
  29:.\main.c      **** 
  30:.\main.c      ****     CyDelay(90);
  32              		.loc 1 30 0
  33 0002 5A20     		mov	r0, #90
  34 0004 FFF7FEFF 		bl	CyDelay
  35              	.LVL0:
  31:.\main.c      ****     if(SW_Read() == 0){
  36              		.loc 1 31 0
  37 0008 FFF7FEFF 		bl	SW_Read
  38              	.LVL1:
  39 000c 0028     		cmp	r0, #0
  40 000e 0CD1     		bne	.L1
  32:.\main.c      ****         tc_2 = tc_1;
  41              		.loc 1 32 0
  42 0010 064C     		ldr	r4, .L3
  43 0012 074B     		ldr	r3, .L3+4
  44 0014 2268     		ldr	r2, [r4]
  45 0016 1A60     		str	r2, [r3]
  33:.\main.c      ****         tc_1 = Timer_1_ReadCounter(); 
  46              		.loc 1 33 0
  47 0018 FFF7FEFF 		bl	Timer_1_ReadCounter
  48              	.LVL2:
  49 001c 2060     		str	r0, [r4]
  34:.\main.c      ****         press++;
  50              		.loc 1 34 0
  51 001e 054B     		ldr	r3, .L3+8
  52 0020 1A68     		ldr	r2, [r3]
  53 0022 0132     		add	r2, r2, #1
  54 0024 1A60     		str	r2, [r3]
  35:.\main.c      ****         SW_ClearInterrupt();
  55              		.loc 1 35 0
  56 0026 FFF7FEFF 		bl	SW_ClearInterrupt
  57              	.LVL3:
  58              	.L1:
  36:.\main.c      ****         }
  37:.\main.c      ****       
  38:.\main.c      ****     
  39:.\main.c      ****     
  40:.\main.c      ****     }
  59              		.loc 1 40 0
  60              		@ sp needed
  61 002a 10BD     		pop	{r4, pc}
  62              	.L4:
  63              		.align	2
  64              	.L3:
  65 002c 00000000 		.word	tc_1
  66 0030 00000000 		.word	tc_2
  67 0034 00000000 		.word	.LANCHOR0
  68              		.cfi_endproc
  69              	.LFE34:
  70              		.size	SW_Int, .-SW_Int
  71              		.section	.text.PrintInt,"ax",%progbits
  72              		.align	2
  73              		.global	PrintInt
  74              		.code	16
ARM GAS  C:\Users\egh35\AppData\Local\Temp\ccYkSaHX.s 			page 3


  75              		.thumb_func
  76              		.type	PrintInt, %function
  77              	PrintInt:
  78              	.LFB33:
  19:.\main.c      **** void PrintInt(int b){
  79              		.loc 1 19 0
  80              		.cfi_startproc
  81              	.LVL4:
  82 0000 00B5     		push	{lr}
  83              		.cfi_def_cfa_offset 4
  84              		.cfi_offset 14, -4
  85 0002 85B0     		sub	sp, sp, #20
  86              		.cfi_def_cfa_offset 24
  87 0004 021C     		mov	r2, r0
  21:.\main.c      ****     sprintf(buf, "%d", b); 
  88              		.loc 1 21 0
  89 0006 01A8     		add	r0, sp, #4
  90              	.LVL5:
  91 0008 0349     		ldr	r1, .L6
  92 000a FFF7FEFF 		bl	sprintf
  93              	.LVL6:
  22:.\main.c      ****     UART_1_UartPutString(buf);
  94              		.loc 1 22 0
  95 000e 01A8     		add	r0, sp, #4
  96 0010 FFF7FEFF 		bl	UART_1_UartPutString
  97              	.LVL7:
  24:.\main.c      **** }
  98              		.loc 1 24 0
  99 0014 05B0     		add	sp, sp, #20
 100              		@ sp needed
 101 0016 00BD     		pop	{pc}
 102              	.L7:
 103              		.align	2
 104              	.L6:
 105 0018 00000000 		.word	.LC3
 106              		.cfi_endproc
 107              	.LFE33:
 108              		.size	PrintInt, .-PrintInt
 109              		.global	__aeabi_idiv
 110              		.section	.text.main,"ax",%progbits
 111              		.align	2
 112              		.global	main
 113              		.code	16
 114              		.thumb_func
 115              		.type	main, %function
 116              	main:
 117              	.LFB35:
  41:.\main.c      **** 
  42:.\main.c      **** 
  43:.\main.c      **** int main()
  44:.\main.c      **** {
 118              		.loc 1 44 0
 119              		.cfi_startproc
 120 0000 F8B5     		push	{r3, r4, r5, r6, r7, lr}
 121              		.cfi_def_cfa_offset 24
 122              		.cfi_offset 3, -24
 123              		.cfi_offset 4, -20
ARM GAS  C:\Users\egh35\AppData\Local\Temp\ccYkSaHX.s 			page 4


 124              		.cfi_offset 5, -16
 125              		.cfi_offset 6, -12
 126              		.cfi_offset 7, -8
 127              		.cfi_offset 14, -4
  45:.\main.c      ****     CyGlobalIntEnable;      /* Enable global interrupts */
 128              		.loc 1 45 0
 129              	@ 45 ".\main.c" 1
 130 0002 62B6     		CPSIE   i
 131              	@ 0 "" 2
  46:.\main.c      ****     isr_sw_StartEx(SW_Int);
 132              		.loc 1 46 0
 133              		.code	16
 134 0004 1248     		ldr	r0, .L12
 135 0006 FFF7FEFF 		bl	isr_sw_StartEx
 136              	.LVL8:
  47:.\main.c      ****     UART_1_Start();
 137              		.loc 1 47 0
 138 000a FFF7FEFF 		bl	UART_1_Start
 139              	.LVL9:
  48:.\main.c      ****     Timer_1_Start(); 
 140              		.loc 1 48 0
 141 000e FFF7FEFF 		bl	Timer_1_Start
 142              	.LVL10:
  49:.\main.c      ****     
  50:.\main.c      ****     
  51:.\main.c      ****     for(;;)
  52:.\main.c      ****     {
  53:.\main.c      ****         if(press == 2){
 143              		.loc 1 53 0
 144 0012 104C     		ldr	r4, .L12+4
 145              	.LBB2:
  54:.\main.c      ****             
  55:.\main.c      ****             
  56:.\main.c      ****             time = abs(tc_2 - tc_1)/10;
 146              		.loc 1 56 0
 147 0014 104F     		ldr	r7, .L12+8
 148 0016 114E     		ldr	r6, .L12+12
 149              	.L11:
 150              	.LBE2:
  53:.\main.c      ****         if(press == 2){
 151              		.loc 1 53 0
 152 0018 2268     		ldr	r2, [r4]
 153 001a 022A     		cmp	r2, #2
 154 001c FCD1     		bne	.L11
 155              	.LBB3:
 156              		.loc 1 56 0
 157 001e 3B68     		ldr	r3, [r7]
 158 0020 3268     		ldr	r2, [r6]
 159 0022 981A     		sub	r0, r3, r2
 160 0024 C317     		asr	r3, r0, #31
 161 0026 C018     		add	r0, r0, r3
 162 0028 5840     		eor	r0, r3
 163 002a 0A21     		mov	r1, #10
 164 002c FFF7FEFF 		bl	__aeabi_idiv
 165              	.LVL11:
 166 0030 0B4D     		ldr	r5, .L12+16
 167 0032 2860     		str	r0, [r5]
ARM GAS  C:\Users\egh35\AppData\Local\Temp\ccYkSaHX.s 			page 5


  57:.\main.c      ****             
  58:.\main.c      ****             UART_1_UartPutString("\n \r Time Between Presses: ");
 168              		.loc 1 58 0
 169 0034 0B48     		ldr	r0, .L12+20
 170 0036 FFF7FEFF 		bl	UART_1_UartPutString
 171              	.LVL12:
  59:.\main.c      ****             PrintInt(time);
 172              		.loc 1 59 0
 173 003a 2868     		ldr	r0, [r5]
 174 003c FFF7FEFF 		bl	PrintInt
 175              	.LVL13:
  60:.\main.c      ****             UART_1_UartPutString(" ms  ");
 176              		.loc 1 60 0
 177 0040 0948     		ldr	r0, .L12+24
 178 0042 FFF7FEFF 		bl	UART_1_UartPutString
 179              	.LVL14:
  61:.\main.c      ****             press = 0; 
 180              		.loc 1 61 0
 181 0046 0022     		mov	r2, #0
 182 0048 024B     		ldr	r3, .L12+4
 183 004a 1A60     		str	r2, [r3]
 184 004c E4E7     		b	.L11
 185              	.L13:
 186 004e C046     		.align	2
 187              	.L12:
 188 0050 00000000 		.word	SW_Int
 189 0054 00000000 		.word	.LANCHOR0
 190 0058 00000000 		.word	tc_2
 191 005c 00000000 		.word	tc_1
 192 0060 00000000 		.word	time
 193 0064 04000000 		.word	.LC10
 194 0068 20000000 		.word	.LC12
 195              	.LBE3:
 196              		.cfi_endproc
 197              	.LFE35:
 198              		.size	main, .-main
 199              		.comm	time,4,4
 200              		.comm	tc_2,4,4
 201              		.comm	tc_1,4,4
 202              		.global	press
 203              		.section	.rodata.str1.4,"aMS",%progbits,1
 204              		.align	2
 205              	.LC3:
 206 0000 256400   		.ascii	"%d\000"
 207 0003 00       		.space	1
 208              	.LC10:
 209 0004 0A200D20 		.ascii	"\012 \015 Time Between Presses: \000"
 209      54696D65 
 209      20426574 
 209      7765656E 
 209      20507265 
 210 001f 00       		.space	1
 211              	.LC12:
 212 0020 206D7320 		.ascii	" ms  \000"
 212      2000
 213 0026 0000     		.bss
 214              		.align	2
ARM GAS  C:\Users\egh35\AppData\Local\Temp\ccYkSaHX.s 			page 6


 215              		.set	.LANCHOR0,. + 0
 216              		.type	press, %object
 217              		.size	press, 4
 218              	press:
 219 0000 00000000 		.space	4
 220              		.text
 221              	.Letext0:
 222              		.file 2 "Generated_Source\\PSoC4/cytypes.h"
 223              		.file 3 "Generated_Source\\PSoC4/SW.h"
 224              		.file 4 "Generated_Source\\PSoC4/Timer_1.h"
 225              		.file 5 "<built-in>"
 226              		.file 6 "Generated_Source\\PSoC4/CyLib.h"
 227              		.file 7 "Generated_Source\\PSoC4/UART_1_SPI_UART.h"
 228              		.file 8 "Generated_Source\\PSoC4/isr_sw.h"
 229              		.file 9 "Generated_Source\\PSoC4/UART_1.h"