ARM GAS  C:\Users\egh35\AppData\Local\Temp\cc50dwVl.s 			page 1


   1              		.cpu cortex-m0
   2              		.fpu softvfp
   3              		.eabi_attribute 20, 1
   4              		.eabi_attribute 21, 1
   5              		.eabi_attribute 23, 3
   6              		.eabi_attribute 24, 1
   7              		.eabi_attribute 25, 1
   8              		.eabi_attribute 26, 1
   9              		.eabi_attribute 30, 1
  10              		.eabi_attribute 34, 0
  11              		.eabi_attribute 18, 4
  12              		.code	16
  13              		.file	"main.c"
  14              		.text
  15              	.Ltext0:
  16              		.cfi_sections	.debug_frame
  17              		.section	.text.TimerISR,"ax",%progbits
  18              		.align	2
  19              		.global	TimerISR
  20              		.code	16
  21              		.thumb_func
  22              		.type	TimerISR, %function
  23              	TimerISR:
  24              	.LFB33:
  25              		.file 1 ".\\main.c"
   1:.\main.c      **** /* ========================================
   2:.\main.c      ****  *
   3:.\main.c      ****  * Copyright YOUR COMPANY, THE YEAR
   4:.\main.c      ****  * All Rights Reserved
   5:.\main.c      ****  * UNPUBLISHED, LICENSED SOFTWARE.
   6:.\main.c      ****  *
   7:.\main.c      ****  * CONFIDENTIAL AND PROPRIETARY INFORMATION
   8:.\main.c      ****  * WHICH IS THE PROPERTY OF your company.
   9:.\main.c      ****  *
  10:.\main.c      ****  * ========================================
  11:.\main.c      **** */
  12:.\main.c      **** #include <project.h>
  13:.\main.c      **** #include <stdbool.h>
  14:.\main.c      **** 
  15:.\main.c      **** int inc = 1; 
  16:.\main.c      **** bool updown = false;
  17:.\main.c      **** uint16 PWMCompare = 0; 
  18:.\main.c      **** 
  19:.\main.c      **** 
  20:.\main.c      **** 
  21:.\main.c      **** 
  22:.\main.c      **** CY_ISR(TimerISR){
  26              		.loc 1 22 0
  27              		.cfi_startproc
  28 0000 08B5     		push	{r3, lr}
  29              		.cfi_def_cfa_offset 8
  30              		.cfi_offset 3, -8
  31              		.cfi_offset 14, -4
  23:.\main.c      ****             
  24:.\main.c      ****        if(updown == false)
  32              		.loc 1 24 0
  33 0002 104B     		ldr	r3, .L6
ARM GAS  C:\Users\egh35\AppData\Local\Temp\cc50dwVl.s 			page 2


  34 0004 1B78     		ldrb	r3, [r3]
  35 0006 002B     		cmp	r3, #0
  36 0008 03D1     		bne	.L2
  25:.\main.c      ****          {
  26:.\main.c      ****             PWMCompare+=1; 
  37              		.loc 1 26 0
  38 000a 0E4A     		ldr	r2, .L6
  39 000c 5188     		ldrh	r1, [r2, #2]
  40 000e 0131     		add	r1, r1, #1
  41 0010 5180     		strh	r1, [r2, #2]
  42              	.L2:
  27:.\main.c      ****         }
  28:.\main.c      ****        if(updown == true){
  43              		.loc 1 28 0
  44 0012 002B     		cmp	r3, #0
  45 0014 03D0     		beq	.L3
  29:.\main.c      ****         PWMCompare-= 1; 
  46              		.loc 1 29 0
  47 0016 0B4B     		ldr	r3, .L6
  48 0018 5A88     		ldrh	r2, [r3, #2]
  49 001a 013A     		sub	r2, r2, #1
  50 001c 5A80     		strh	r2, [r3, #2]
  51              	.L3:
  30:.\main.c      ****     }
  31:.\main.c      ****     
  32:.\main.c      ****     if(PWMCompare >= 1000){
  52              		.loc 1 32 0
  53 001e 094B     		ldr	r3, .L6
  54 0020 5B88     		ldrh	r3, [r3, #2]
  55 0022 094A     		ldr	r2, .L6+4
  56 0024 9342     		cmp	r3, r2
  57 0026 02D9     		bls	.L4
  33:.\main.c      ****         updown = true;
  58              		.loc 1 33 0
  59 0028 0121     		mov	r1, #1
  60 002a 064A     		ldr	r2, .L6
  61 002c 1170     		strb	r1, [r2]
  62              	.L4:
  34:.\main.c      ****     }
  35:.\main.c      ****     if(PWMCompare <= 100){
  63              		.loc 1 35 0
  64 002e 642B     		cmp	r3, #100
  65 0030 02D8     		bhi	.L5
  36:.\main.c      ****         updown = false;
  66              		.loc 1 36 0
  67 0032 0022     		mov	r2, #0
  68 0034 034B     		ldr	r3, .L6
  69 0036 1A70     		strb	r2, [r3]
  70              	.L5:
  37:.\main.c      ****     }
  38:.\main.c      ****    
  39:.\main.c      ****            
  40:.\main.c      ****     UART_1_UartPutString(" \n \r");
  71              		.loc 1 40 0
  72 0038 0448     		ldr	r0, .L6+8
  73 003a FFF7FEFF 		bl	UART_1_UartPutString
  74              	.LVL0:
ARM GAS  C:\Users\egh35\AppData\Local\Temp\cc50dwVl.s 			page 3


  41:.\main.c      ****     Timer_1_ReadStatusRegister();
  75              		.loc 1 41 0
  76 003e FFF7FEFF 		bl	Timer_1_ReadStatusRegister
  77              	.LVL1:
  42:.\main.c      ****         
  43:.\main.c      ****     
  44:.\main.c      **** }
  78              		.loc 1 44 0
  79              		@ sp needed
  80 0042 08BD     		pop	{r3, pc}
  81              	.L7:
  82              		.align	2
  83              	.L6:
  84 0044 00000000 		.word	.LANCHOR0
  85 0048 E7030000 		.word	999
  86 004c 00000000 		.word	.LC1
  87              		.cfi_endproc
  88              	.LFE33:
  89              		.size	TimerISR, .-TimerISR
  90              		.section	.text.PrintInt,"ax",%progbits
  91              		.align	2
  92              		.global	PrintInt
  93              		.code	16
  94              		.thumb_func
  95              		.type	PrintInt, %function
  96              	PrintInt:
  97              	.LFB34:
  45:.\main.c      **** 
  46:.\main.c      **** 
  47:.\main.c      **** void PrintInt(int b){
  98              		.loc 1 47 0
  99              		.cfi_startproc
 100              	.LVL2:
 101 0000 00B5     		push	{lr}
 102              		.cfi_def_cfa_offset 4
 103              		.cfi_offset 14, -4
 104 0002 85B0     		sub	sp, sp, #20
 105              		.cfi_def_cfa_offset 24
 106 0004 021C     		mov	r2, r0
  48:.\main.c      ****     char buf[10];
  49:.\main.c      ****     sprintf(buf, "%d", b); 
 107              		.loc 1 49 0
 108 0006 01A8     		add	r0, sp, #4
 109              	.LVL3:
 110 0008 0349     		ldr	r1, .L9
 111 000a FFF7FEFF 		bl	sprintf
 112              	.LVL4:
  50:.\main.c      ****     UART_1_UartPutString(buf);
 113              		.loc 1 50 0
 114 000e 01A8     		add	r0, sp, #4
 115 0010 FFF7FEFF 		bl	UART_1_UartPutString
 116              	.LVL5:
  51:.\main.c      **** 
  52:.\main.c      **** }
 117              		.loc 1 52 0
 118 0014 05B0     		add	sp, sp, #20
 119              		@ sp needed
ARM GAS  C:\Users\egh35\AppData\Local\Temp\cc50dwVl.s 			page 4


 120 0016 00BD     		pop	{pc}
 121              	.L10:
 122              		.align	2
 123              	.L9:
 124 0018 08000000 		.word	.LC3
 125              		.cfi_endproc
 126              	.LFE34:
 127              		.size	PrintInt, .-PrintInt
 128              		.section	.text.main,"ax",%progbits
 129              		.align	2
 130              		.global	main
 131              		.code	16
 132              		.thumb_func
 133              		.type	main, %function
 134              	main:
 135              	.LFB35:
  53:.\main.c      **** 
  54:.\main.c      **** int main()
  55:.\main.c      **** {
 136              		.loc 1 55 0
 137              		.cfi_startproc
 138 0000 10B5     		push	{r4, lr}
 139              		.cfi_def_cfa_offset 8
 140              		.cfi_offset 4, -8
 141              		.cfi_offset 14, -4
  56:.\main.c      **** isr_1_StartEx(TimerISR);
 142              		.loc 1 56 0
 143 0002 0A48     		ldr	r0, .L13
 144 0004 FFF7FEFF 		bl	isr_1_StartEx
 145              	.LVL6:
  57:.\main.c      ****     CyGlobalIntEnable; /* Enable global interrupts. */
 146              		.loc 1 57 0
 147              	@ 57 ".\main.c" 1
 148 0008 62B6     		CPSIE   i
 149              	@ 0 "" 2
  58:.\main.c      **** 
  59:.\main.c      **** PWM_1_Start(); 
 150              		.loc 1 59 0
 151              		.code	16
 152 000a FFF7FEFF 		bl	PWM_1_Start
 153              	.LVL7:
  60:.\main.c      **** UART_1_Start();
 154              		.loc 1 60 0
 155 000e FFF7FEFF 		bl	UART_1_Start
 156              	.LVL8:
  61:.\main.c      **** Timer_1_Start();
 157              		.loc 1 61 0
 158 0012 FFF7FEFF 		bl	Timer_1_Start
 159              	.LVL9:
  62:.\main.c      ****     /* Place your initialization/startup code here (e.g. MyInst_Start()) */
  63:.\main.c      **** // PWM Triangle wave - part 1
  64:.\main.c      ****     for(;;)
  65:.\main.c      ****     {
  66:.\main.c      ****         
  67:.\main.c      **** 
  68:.\main.c      ****         PrintInt(PWMCompare);
 160              		.loc 1 68 0
ARM GAS  C:\Users\egh35\AppData\Local\Temp\cc50dwVl.s 			page 5


 161 0016 064C     		ldr	r4, .L13+4
 162              	.L12:
 163              		.loc 1 68 0 is_stmt 0 discriminator 1
 164 0018 6088     		ldrh	r0, [r4, #2]
 165 001a FFF7FEFF 		bl	PrintInt
 166              	.LVL10:
  69:.\main.c      ****         PWM_1_WriteCompare(PWMCompare);
 167              		.loc 1 69 0 is_stmt 1 discriminator 1
 168 001e 6088     		ldrh	r0, [r4, #2]
 169 0020 FFF7FEFF 		bl	PWM_1_WriteCompare
 170              	.LVL11:
  70:.\main.c      ****         CyDelay(1);
 171              		.loc 1 70 0 discriminator 1
 172 0024 0120     		mov	r0, #1
 173 0026 FFF7FEFF 		bl	CyDelay
 174              	.LVL12:
 175 002a F5E7     		b	.L12
 176              	.L14:
 177              		.align	2
 178              	.L13:
 179 002c 00000000 		.word	TimerISR
 180 0030 00000000 		.word	.LANCHOR0
 181              		.cfi_endproc
 182              	.LFE35:
 183              		.size	main, .-main
 184              		.global	PWMCompare
 185              		.global	updown
 186              		.global	inc
 187              		.data
 188              		.align	2
 189              		.type	inc, %object
 190              		.size	inc, 4
 191              	inc:
 192 0000 01000000 		.word	1
 193              		.section	.rodata.str1.4,"aMS",%progbits,1
 194              		.align	2
 195              	.LC1:
 196 0000 200A200D 		.ascii	" \012 \015\000"
 196      00
 197 0005 000000   		.space	3
 198              	.LC3:
 199 0008 256400   		.ascii	"%d\000"
 200 000b 00       		.bss
 201              		.align	1
 202              		.set	.LANCHOR0,. + 0
 203              		.type	updown, %object
 204              		.size	updown, 1
 205              	updown:
 206 0000 00       		.space	1
 207 0001 00       		.space	1
 208              		.type	PWMCompare, %object
 209              		.size	PWMCompare, 2
 210              	PWMCompare:
 211 0002 0000     		.space	2
 212              		.text
 213              	.Letext0:
 214              		.file 2 "Generated_Source\\PSoC4/cytypes.h"
ARM GAS  C:\Users\egh35\AppData\Local\Temp\cc50dwVl.s 			page 6


 215              		.file 3 "<built-in>"
 216              		.file 4 "Generated_Source\\PSoC4/UART_1_SPI_UART.h"
 217              		.file 5 "Generated_Source\\PSoC4/isr_1.h"
 218              		.file 6 "Generated_Source\\PSoC4/PWM_1.h"
 219              		.file 7 "Generated_Source\\PSoC4/UART_1.h"
 220              		.file 8 "Generated_Source\\PSoC4/Timer_1.h"
 221              		.file 9 "Generated_Source\\PSoC4/CyLib.h"