ARM GAS  C:\Users\egh35\AppData\Local\Temp\ccmoi9QA.s 			page 1


   1              		.cpu cortex-m0
   2              		.fpu softvfp
   3              		.eabi_attribute 20, 1
   4              		.eabi_attribute 21, 1
   5              		.eabi_attribute 23, 3
   6              		.eabi_attribute 24, 1
   7              		.eabi_attribute 25, 1
   8              		.eabi_attribute 26, 1
   9              		.eabi_attribute 30, 1
  10              		.eabi_attribute 34, 0
  11              		.eabi_attribute 18, 4
  12              		.code	16
  13              		.file	"main.c"
  14              		.text
  15              	.Ltext0:
  16              		.cfi_sections	.debug_frame
  17              		.section	.text.IsPalindrome,"ax",%progbits
  18              		.align	2
  19              		.global	IsPalindrome
  20              		.code	16
  21              		.thumb_func
  22              		.type	IsPalindrome, %function
  23              	IsPalindrome:
  24              	.LFB33:
  25              		.file 1 ".\\main.c"
   1:.\main.c      **** /* ========================================
   2:.\main.c      ****  *
   3:.\main.c      ****  * Copyright YOUR COMPANY, THE YEAR
   4:.\main.c      ****  * All Rights Reserved
   5:.\main.c      ****  * UNPUBLISHED, LICENSED SOFTWARE.
   6:.\main.c      ****  *
   7:.\main.c      ****  * CONFIDENTIAL AND PROPRIETARY INFORMATION
   8:.\main.c      ****  * WHICH IS THE PROPERTY OF your company.
   9:.\main.c      ****  *
  10:.\main.c      ****  * ========================================
  11:.\main.c      **** */
  12:.\main.c      **** #include <project.h>
  13:.\main.c      **** #include <stdio.h>
  14:.\main.c      **** 
  15:.\main.c      **** int IsPalindrome(char *str, int len){
  26              		.loc 1 15 0
  27              		.cfi_startproc
  28              	.LVL0:
  29 0000 F0B5     		push	{r4, r5, r6, r7, lr}
  30              		.cfi_def_cfa_offset 20
  31              		.cfi_offset 4, -20
  32              		.cfi_offset 5, -16
  33              		.cfi_offset 6, -12
  34              		.cfi_offset 7, -8
  35              		.cfi_offset 14, -4
  36 0002 5746     		mov	r7, r10
  37 0004 4E46     		mov	r6, r9
  38 0006 4546     		mov	r5, r8
  39 0008 E0B4     		push	{r5, r6, r7}
  40              		.cfi_def_cfa_offset 32
  41              		.cfi_offset 8, -32
  42              		.cfi_offset 9, -28
ARM GAS  C:\Users\egh35\AppData\Local\Temp\ccmoi9QA.s 			page 2


  43              		.cfi_offset 10, -24
  44 000a 84B0     		sub	sp, sp, #16
  45              		.cfi_def_cfa_offset 48
  46 000c 00AF     		add	r7, sp, #0
  47              		.cfi_def_cfa_register 7
  48 000e 041C     		mov	r4, r0
  49 0010 0E1C     		mov	r6, r1
  50              	.LVL1:
  16:.\main.c      ****     
  17:.\main.c      **** char str1[len];
  51              		.loc 1 17 0
  52 0012 CB1D     		add	r3, r1, #7
  53 0014 DB08     		lsr	r3, r3, #3
  54 0016 DB00     		lsl	r3, r3, #3
  55 0018 6A46     		mov	r2, sp
  56 001a D21A     		sub	r2, r2, r3
  57 001c 9546     		mov	sp, r2
  58 001e 6D46     		mov	r5, sp
  59              	.LVL2:
  18:.\main.c      **** char str_rev[len];
  60              		.loc 1 18 0
  61 0020 D21A     		sub	r2, r2, r3
  62              	.LVL3:
  63 0022 9546     		mov	sp, r2
  64 0024 E846     		mov	r8, sp
  65              	.LVL4:
  19:.\main.c      **** int i = 0;
  20:.\main.c      **** char buf[10];
  21:.\main.c      **** int status = 0; 
  22:.\main.c      **** 
  23:.\main.c      ****     //kill spaces - if not space, set equal, if space, increment root string
  24:.\main.c      **** UART_1_UartPutString("\n \r  ");
  66              		.loc 1 24 0
  67 0026 2848     		ldr	r0, .L14
  68              	.LVL5:
  69 0028 FFF7FEFF 		bl	UART_1_UartPutString
  70              	.LVL6:
  19:.\main.c      **** int i = 0;
  71              		.loc 1 19 0
  72 002c 0023     		mov	r3, #0
  73 002e 9946     		mov	r9, r3
  25:.\main.c      **** while(*str != 0){
  26:.\main.c      ****     if(*str != 32){
  27:.\main.c      ****         str1[i] = *str;
  28:.\main.c      ****     sprintf(buf, "%c", str1[i]);
  74              		.loc 1 28 0
  75 0030 264A     		ldr	r2, .L14+4
  76 0032 9246     		mov	r10, r2
  25:.\main.c      **** while(*str != 0){
  77              		.loc 1 25 0
  78 0034 0FE0     		b	.L13
  79              	.LVL7:
  80              	.L5:
  26:.\main.c      ****     if(*str != 32){
  81              		.loc 1 26 0
  82 0036 202A     		cmp	r2, #32
  83 0038 0CD0     		beq	.L3
ARM GAS  C:\Users\egh35\AppData\Local\Temp\ccmoi9QA.s 			page 3


  27:.\main.c      ****         str1[i] = *str;
  84              		.loc 1 27 0
  85 003a 4B46     		mov	r3, r9
  86 003c EA54     		strb	r2, [r5, r3]
  87              		.loc 1 28 0
  88 003e 381D     		add	r0, r7, #4
  89 0040 5146     		mov	r1, r10
  90 0042 FFF7FEFF 		bl	sprintf
  91              	.LVL8:
  29:.\main.c      ****     UART_1_UartPutString(buf);
  92              		.loc 1 29 0
  93 0046 381D     		add	r0, r7, #4
  94 0048 FFF7FEFF 		bl	UART_1_UartPutString
  95              	.LVL9:
  30:.\main.c      ****         str++;
  96              		.loc 1 30 0
  97 004c 0134     		add	r4, r4, #1
  98              	.LVL10:
  31:.\main.c      ****         i++;
  99              		.loc 1 31 0
 100 004e 0122     		mov	r2, #1
 101 0050 9144     		add	r9, r9, r2
 102              	.LVL11:
 103 0052 00E0     		b	.L13
 104              	.L3:
  32:.\main.c      ****   
  33:.\main.c      ****     }
  34:.\main.c      ****     else{
  35:.\main.c      ****         str++;
 105              		.loc 1 35 0
 106 0054 0134     		add	r4, r4, #1
 107              	.LVL12:
 108              	.L13:
  25:.\main.c      **** while(*str != 0){
 109              		.loc 1 25 0 discriminator 1
 110 0056 2278     		ldrb	r2, [r4]
 111 0058 002A     		cmp	r2, #0
 112 005a ECD1     		bne	.L5
 113              	.LVL13:
  36:.\main.c      ****     }
  37:.\main.c      ****     
  38:.\main.c      **** }
  39:.\main.c      **** 
  40:.\main.c      **** i = 0; 
  41:.\main.c      **** //reverse jawn 
  42:.\main.c      **** UART_1_UartPutString("\n \r  ");
 114              		.loc 1 42 0
 115 005c 1A48     		ldr	r0, .L14
 116 005e FFF7FEFF 		bl	UART_1_UartPutString
 117              	.LVL14:
  43:.\main.c      **** for(i = 0; i < len; i++){
 118              		.loc 1 43 0
 119 0062 0024     		mov	r4, #0
 120              	.LVL15:
  44:.\main.c      ****     str_rev[i] = str1[len-1-i];
 121              		.loc 1 44 0
 122 0064 731E     		sub	r3, r6, #1
ARM GAS  C:\Users\egh35\AppData\Local\Temp\ccmoi9QA.s 			page 4


 123 0066 9A46     		mov	r10, r3
  45:.\main.c      ****     sprintf(buf, "%c", str_rev[i]);
 124              		.loc 1 45 0
 125 0068 184A     		ldr	r2, .L14+4
 126 006a 9146     		mov	r9, r2
  43:.\main.c      **** for(i = 0; i < len; i++){
 127              		.loc 1 43 0
 128 006c 0CE0     		b	.L6
 129              	.LVL16:
 130              	.L7:
  44:.\main.c      ****     str_rev[i] = str1[len-1-i];
 131              		.loc 1 44 0 discriminator 2
 132 006e 5246     		mov	r2, r10
 133 0070 131B     		sub	r3, r2, r4
 134 0072 EA5C     		ldrb	r2, [r5, r3]
 135 0074 4346     		mov	r3, r8
 136 0076 1A55     		strb	r2, [r3, r4]
 137              		.loc 1 45 0 discriminator 2
 138 0078 381D     		add	r0, r7, #4
 139 007a 4946     		mov	r1, r9
 140 007c FFF7FEFF 		bl	sprintf
 141              	.LVL17:
  46:.\main.c      ****     UART_1_UartPutString(buf);
 142              		.loc 1 46 0 discriminator 2
 143 0080 381D     		add	r0, r7, #4
 144 0082 FFF7FEFF 		bl	UART_1_UartPutString
 145              	.LVL18:
  43:.\main.c      **** for(i = 0; i < len; i++){
 146              		.loc 1 43 0 discriminator 2
 147 0086 0134     		add	r4, r4, #1
 148              	.LVL19:
 149              	.L6:
  43:.\main.c      **** for(i = 0; i < len; i++){
 150              		.loc 1 43 0 is_stmt 0 discriminator 1
 151 0088 B442     		cmp	r4, r6
 152 008a F0DB     		blt	.L7
 153 008c 0023     		mov	r3, #0
 154 008e 0AE0     		b	.L8
 155              	.LVL20:
 156              	.L11:
  47:.\main.c      **** }
  48:.\main.c      **** 
  49:.\main.c      **** for(i = 0; i < len; i++){
  50:.\main.c      ****     if(str_rev[i] != str1[i]){
 157              		.loc 1 50 0 is_stmt 1
 158 0090 4246     		mov	r2, r8
 159 0092 D15C     		ldrb	r1, [r2, r3]
 160 0094 EA5C     		ldrb	r2, [r5, r3]
 161 0096 9142     		cmp	r1, r2
 162 0098 04D0     		beq	.L9
  51:.\main.c      ****     UART_1_UartPutString("\n \r not a palindrome "); 
 163              		.loc 1 51 0
 164 009a 0D48     		ldr	r0, .L14+8
 165 009c FFF7FEFF 		bl	UART_1_UartPutString
 166              	.LVL21:
  52:.\main.c      ****     status = 1;
 167              		.loc 1 52 0
ARM GAS  C:\Users\egh35\AppData\Local\Temp\ccmoi9QA.s 			page 5


 168 00a0 0124     		mov	r4, #1
  53:.\main.c      ****     break; 
 169              		.loc 1 53 0
 170 00a2 03E0     		b	.L10
 171              	.LVL22:
 172              	.L9:
  49:.\main.c      **** for(i = 0; i < len; i++){
 173              		.loc 1 49 0
 174 00a4 0133     		add	r3, r3, #1
 175              	.LVL23:
 176              	.L8:
  49:.\main.c      **** for(i = 0; i < len; i++){
 177              		.loc 1 49 0 is_stmt 0 discriminator 1
 178 00a6 B342     		cmp	r3, r6
 179 00a8 F2DB     		blt	.L11
  21:.\main.c      **** int status = 0; 
 180              		.loc 1 21 0 is_stmt 1
 181 00aa 0024     		mov	r4, #0
 182              	.LVL24:
 183              	.L10:
  54:.\main.c      ****     }
  55:.\main.c      **** }
  56:.\main.c      **** 
  57:.\main.c      **** if(status == 0){
 184              		.loc 1 57 0
 185 00ac 002C     		cmp	r4, #0
 186 00ae 02D1     		bne	.L12
  58:.\main.c      ****     UART_1_UartPutString("\n \r yup, this is a palindrome. cool "); 
 187              		.loc 1 58 0
 188 00b0 0848     		ldr	r0, .L14+12
 189 00b2 FFF7FEFF 		bl	UART_1_UartPutString
 190              	.LVL25:
 191              	.L12:
  59:.\main.c      **** }
  60:.\main.c      **** return status; 
  61:.\main.c      **** 
  62:.\main.c      **** 
  63:.\main.c      **** 
  64:.\main.c      **** 
  65:.\main.c      **** }
 192              		.loc 1 65 0
 193 00b6 201C     		mov	r0, r4
 194 00b8 BD46     		mov	sp, r7
 195 00ba 04B0     		add	sp, sp, #16
 196              		@ sp needed
 197              	.LVL26:
 198              	.LVL27:
 199              	.LVL28:
 200              	.LVL29:
 201              	.LVL30:
 202 00bc 1CBC     		pop	{r2, r3, r4}
 203 00be 9046     		mov	r8, r2
 204 00c0 9946     		mov	r9, r3
 205 00c2 A246     		mov	r10, r4
 206 00c4 F0BD     		pop	{r4, r5, r6, r7, pc}
 207              	.L15:
 208 00c6 C046     		.align	2
ARM GAS  C:\Users\egh35\AppData\Local\Temp\ccmoi9QA.s 			page 6


 209              	.L14:
 210 00c8 00000000 		.word	.LC0
 211 00cc 08000000 		.word	.LC2
 212 00d0 0C000000 		.word	.LC4
 213 00d4 24000000 		.word	.LC6
 214              		.cfi_endproc
 215              	.LFE33:
 216              		.size	IsPalindrome, .-IsPalindrome
 217              		.section	.text.StrinLen,"ax",%progbits
 218              		.align	2
 219              		.global	StrinLen
 220              		.code	16
 221              		.thumb_func
 222              		.type	StrinLen, %function
 223              	StrinLen:
 224              	.LFB34:
  66:.\main.c      **** 
  67:.\main.c      **** int StrinLen(char *str){ //returns number of characters minus spaces 
 225              		.loc 1 67 0
 226              		.cfi_startproc
 227              	.LVL31:
 228 0000 021C     		mov	r2, r0
 229              	.LVL32:
  68:.\main.c      ****     int length =0; 
 230              		.loc 1 68 0
 231 0002 0020     		mov	r0, #0
 232              	.LVL33:
  69:.\main.c      ****     
  70:.\main.c      ****     while(*str != 0){
 233              		.loc 1 70 0
 234 0004 05E0     		b	.L21
 235              	.LVL34:
 236              	.L20:
  71:.\main.c      ****         if(*str != 32){
 237              		.loc 1 71 0
 238 0006 202B     		cmp	r3, #32
 239 0008 02D0     		beq	.L18
  72:.\main.c      ****             length++; 
 240              		.loc 1 72 0
 241 000a 0130     		add	r0, r0, #1
 242              	.LVL35:
  73:.\main.c      ****             str++;
 243              		.loc 1 73 0
 244 000c 0132     		add	r2, r2, #1
 245              	.LVL36:
 246 000e 00E0     		b	.L21
 247              	.L18:
  74:.\main.c      ****         }
  75:.\main.c      ****         else{
  76:.\main.c      ****             str++;
 248              		.loc 1 76 0
 249 0010 0132     		add	r2, r2, #1
 250              	.LVL37:
 251              	.L21:
  70:.\main.c      ****     while(*str != 0){
 252              		.loc 1 70 0 discriminator 1
 253 0012 1378     		ldrb	r3, [r2]
ARM GAS  C:\Users\egh35\AppData\Local\Temp\ccmoi9QA.s 			page 7


 254 0014 002B     		cmp	r3, #0
 255 0016 F6D1     		bne	.L20
  77:.\main.c      ****         }
  78:.\main.c      ****     }
  79:.\main.c      ****     
  80:.\main.c      ****     return length;
  81:.\main.c      ****     
  82:.\main.c      ****     
  83:.\main.c      ****     
  84:.\main.c      ****     
  85:.\main.c      **** }
 256              		.loc 1 85 0
 257              		@ sp needed
 258 0018 7047     		bx	lr
 259              		.cfi_endproc
 260              	.LFE34:
 261              		.size	StrinLen, .-StrinLen
 262 001a C046     		.section	.text.readString,"ax",%progbits
 263              		.align	2
 264              		.global	readString
 265              		.code	16
 266              		.thumb_func
 267              		.type	readString, %function
 268              	readString:
 269              	.LFB35:
  86:.\main.c      **** 
  87:.\main.c      **** 
  88:.\main.c      **** 
  89:.\main.c      **** void readString(char *buffer)
  90:.\main.c      **** {
 270              		.loc 1 90 0
 271              		.cfi_startproc
 272              	.LVL38:
 273 0000 38B5     		push	{r3, r4, r5, lr}
 274              		.cfi_def_cfa_offset 16
 275              		.cfi_offset 3, -16
 276              		.cfi_offset 4, -12
 277              		.cfi_offset 5, -8
 278              		.cfi_offset 14, -4
 279 0002 051C     		mov	r5, r0
 280              	.LVL39:
 281              	.L26:
  91:.\main.c      **** uint32 rxData;
  92:.\main.c      **** char *ptr = buffer;
  93:.\main.c      ****     
  94:.\main.c      **** for(;;){
  95:.\main.c      ****     rxData = UART_1_UartGetChar();
 282              		.loc 1 95 0
 283 0004 FFF7FEFF 		bl	UART_1_UartGetChar
 284              	.LVL40:
 285 0008 041E     		sub	r4, r0, #0
 286              	.LVL41:
  96:.\main.c      ****     if(rxData){
 287              		.loc 1 96 0
 288 000a FBD0     		beq	.L26
  97:.\main.c      ****         UART_1_UartPutChar(rxData); /* Echo character. */
 289              		.loc 1 97 0
ARM GAS  C:\Users\egh35\AppData\Local\Temp\ccmoi9QA.s 			page 8


 290 000c FFF7FEFF 		bl	UART_1_SpiUartWriteTxData
 291              	.LVL42:
  98:.\main.c      ****         /* On a carriage return, null terminate the string
  99:.\main.c      ****         and break out of the loop. */
 100:.\main.c      ****         if(rxData == 13){
 292              		.loc 1 100 0
 293 0010 0D2C     		cmp	r4, #13
 294 0012 02D1     		bne	.L24
 101:.\main.c      ****         *ptr = 0;
 295              		.loc 1 101 0
 296 0014 0023     		mov	r3, #0
 297 0016 2B70     		strb	r3, [r5]
 298 0018 02E0     		b	.L27
 299              	.L24:
 102:.\main.c      ****         break;
 103:.\main.c      ****         }
 104:.\main.c      **** *ptr = rxData;
 300              		.loc 1 104 0
 301 001a 2C70     		strb	r4, [r5]
 105:.\main.c      **** ptr++;
 302              		.loc 1 105 0
 303 001c 0135     		add	r5, r5, #1
 304              	.LVL43:
 305 001e F1E7     		b	.L26
 306              	.L27:
 106:.\main.c      **** }
 107:.\main.c      **** }
 108:.\main.c      **** }
 307              		.loc 1 108 0
 308              		@ sp needed
 309              	.LVL44:
 310              	.LVL45:
 311 0020 38BD     		pop	{r3, r4, r5, pc}
 312              		.cfi_endproc
 313              	.LFE35:
 314              		.size	readString, .-readString
 315 0022 C046     		.section	.text.PrintInt,"ax",%progbits
 316              		.align	2
 317              		.global	PrintInt
 318              		.code	16
 319              		.thumb_func
 320              		.type	PrintInt, %function
 321              	PrintInt:
 322              	.LFB36:
 109:.\main.c      **** 
 110:.\main.c      **** void PrintInt(int b){
 323              		.loc 1 110 0
 324              		.cfi_startproc
 325              	.LVL46:
 326 0000 00B5     		push	{lr}
 327              		.cfi_def_cfa_offset 4
 328              		.cfi_offset 14, -4
 329 0002 85B0     		sub	sp, sp, #20
 330              		.cfi_def_cfa_offset 24
 331 0004 021C     		mov	r2, r0
 111:.\main.c      ****     char buf[10];
 112:.\main.c      ****     sprintf(buf, "%d", b); 
ARM GAS  C:\Users\egh35\AppData\Local\Temp\ccmoi9QA.s 			page 9


 332              		.loc 1 112 0
 333 0006 01A8     		add	r0, sp, #4
 334              	.LVL47:
 335 0008 0349     		ldr	r1, .L29
 336 000a FFF7FEFF 		bl	sprintf
 337              	.LVL48:
 113:.\main.c      ****     UART_1_UartPutString(buf);
 338              		.loc 1 113 0
 339 000e 01A8     		add	r0, sp, #4
 340 0010 FFF7FEFF 		bl	UART_1_UartPutString
 341              	.LVL49:
 114:.\main.c      **** 
 115:.\main.c      **** }
 342              		.loc 1 115 0
 343 0014 05B0     		add	sp, sp, #20
 344              		@ sp needed
 345 0016 00BD     		pop	{pc}
 346              	.L30:
 347              		.align	2
 348              	.L29:
 349 0018 4C000000 		.word	.LC8
 350              		.cfi_endproc
 351              	.LFE36:
 352              		.size	PrintInt, .-PrintInt
 353              		.section	.text.main,"ax",%progbits
 354              		.align	2
 355              		.global	main
 356              		.code	16
 357              		.thumb_func
 358              		.type	main, %function
 359              	main:
 360              	.LFB37:
 116:.\main.c      **** 
 117:.\main.c      **** 
 118:.\main.c      **** 
 119:.\main.c      **** int main()
 120:.\main.c      **** {
 361              		.loc 1 120 0
 362              		.cfi_startproc
 363 0000 10B5     		push	{r4, lr}
 364              		.cfi_def_cfa_offset 8
 365              		.cfi_offset 4, -8
 366              		.cfi_offset 14, -4
 367 0002 86B0     		sub	sp, sp, #24
 368              		.cfi_def_cfa_offset 32
 121:.\main.c      ****     CyGlobalIntEnable; /* Enable global interrupts. */
 369              		.loc 1 121 0
 370              	@ 121 ".\main.c" 1
 371 0004 62B6     		CPSIE   i
 372              	@ 0 "" 2
 122:.\main.c      ****     UART_1_Start(); /* Start the UART component. */
 373              		.loc 1 122 0
 374              		.code	16
 375 0006 FFF7FEFF 		bl	UART_1_Start
 376              	.LVL50:
 377              	.LBB2:
 123:.\main.c      ****     char str1[20];
ARM GAS  C:\Users\egh35\AppData\Local\Temp\ccmoi9QA.s 			page 10


 124:.\main.c      ****     int status;
 125:.\main.c      ****         
 126:.\main.c      **** 
 127:.\main.c      ****     
 128:.\main.c      ****     while(str1)
 129:.\main.c      **** {
 130:.\main.c      ****     UART_1_UartPutString("\n \r Enter a string for palindrome check: ");    
 378              		.loc 1 130 0
 379 000a 074C     		ldr	r4, .L33
 380              	.L32:
 381              		.loc 1 130 0 is_stmt 0 discriminator 1
 382 000c 201C     		mov	r0, r4
 383 000e FFF7FEFF 		bl	UART_1_UartPutString
 384              	.LVL51:
 131:.\main.c      ****     readString(str1);
 385              		.loc 1 131 0 is_stmt 1 discriminator 1
 386 0012 01A8     		add	r0, sp, #4
 387 0014 FFF7FEFF 		bl	readString
 388              	.LVL52:
 132:.\main.c      ****     int len = StrinLen(str1);
 389              		.loc 1 132 0 discriminator 1
 390 0018 01A8     		add	r0, sp, #4
 391 001a FFF7FEFF 		bl	StrinLen
 392              	.LVL53:
 393 001e 011C     		mov	r1, r0
 394              	.LVL54:
 133:.\main.c      ****     status = IsPalindrome(str1, len);
 395              		.loc 1 133 0 discriminator 1
 396 0020 01A8     		add	r0, sp, #4
 397              	.LVL55:
 398 0022 FFF7FEFF 		bl	IsPalindrome
 399              	.LVL56:
 400 0026 F1E7     		b	.L32
 401              	.L34:
 402              		.align	2
 403              	.L33:
 404 0028 50000000 		.word	.LC10
 405              	.LBE2:
 406              		.cfi_endproc
 407              	.LFE37:
 408              		.size	main, .-main
 409              		.section	.rodata.str1.4,"aMS",%progbits,1
 410              		.align	2
 411              	.LC0:
 412 0000 0A200D20 		.ascii	"\012 \015  \000"
 412      2000
 413 0006 0000     		.space	2
 414              	.LC2:
 415 0008 256300   		.ascii	"%c\000"
 416 000b 00       		.space	1
 417              	.LC4:
 418 000c 0A200D20 		.ascii	"\012 \015 not a palindrome \000"
 418      6E6F7420 
 418      61207061 
 418      6C696E64 
 418      726F6D65 
 419 0022 0000     		.space	2
ARM GAS  C:\Users\egh35\AppData\Local\Temp\ccmoi9QA.s 			page 11


 420              	.LC6:
 421 0024 0A200D20 		.ascii	"\012 \015 yup, this is a palindrome. cool \000"
 421      7975702C 
 421      20746869 
 421      73206973 
 421      20612070 
 422 0049 000000   		.space	3
 423              	.LC8:
 424 004c 256400   		.ascii	"%d\000"
 425 004f 00       		.space	1
 426              	.LC10:
 427 0050 0A200D20 		.ascii	"\012 \015 Enter a string for palindrome check: \000"
 427      456E7465 
 427      72206120 
 427      73747269 
 427      6E672066 
 428 007a 0000     		.text
 429              	.Letext0:
 430              		.file 2 "Generated_Source\\PSoC4/cytypes.h"
 431              		.file 3 "Generated_Source\\PSoC4/UART_1_SPI_UART.h"
 432              		.file 4 "c:\\program files (x86)\\cypress\\psoc creator\\3.2\\psoc creator\\import\\gnu\\arm\\4.8.
 433              		.file 5 "Generated_Source\\PSoC4/UART_1.h"