ARM GAS  C:\Users\egh35\AppData\Local\Temp\ccLUjRwa.s 			page 1


   1              		.cpu cortex-m0
   2              		.fpu softvfp
   3              		.eabi_attribute 20, 1
   4              		.eabi_attribute 21, 1
   5              		.eabi_attribute 23, 3
   6              		.eabi_attribute 24, 1
   7              		.eabi_attribute 25, 1
   8              		.eabi_attribute 26, 1
   9              		.eabi_attribute 30, 1
  10              		.eabi_attribute 34, 0
  11              		.eabi_attribute 18, 4
  12              		.code	16
  13              		.file	"cyfitter_cfg.c"
  14              		.text
  15              	.Ltext0:
  16              		.cfi_sections	.debug_frame
  17              		.section	.text.cfg_write_bytes32,"ax",%progbits
  18              		.align	2
  19              		.code	16
  20              		.thumb_func
  21              		.type	cfg_write_bytes32, %function
  22              	cfg_write_bytes32:
  23              	.LFB3:
  24              		.file 1 ".\\Generated_Source\\PSoC4\\cyfitter_cfg.c"
   1:.\Generated_Source\PSoC4/cyfitter_cfg.c **** /*******************************************************************************
   2:.\Generated_Source\PSoC4/cyfitter_cfg.c **** * FILENAME: cyfitter_cfg.c
   3:.\Generated_Source\PSoC4/cyfitter_cfg.c **** * 
   4:.\Generated_Source\PSoC4/cyfitter_cfg.c **** * PSoC Creator  3.2 SP1
   5:.\Generated_Source\PSoC4/cyfitter_cfg.c **** *
   6:.\Generated_Source\PSoC4/cyfitter_cfg.c **** * DESCRIPTION:
   7:.\Generated_Source\PSoC4/cyfitter_cfg.c **** * This file contains device initialization code.
   8:.\Generated_Source\PSoC4/cyfitter_cfg.c **** * Except for the user defined sections in CyClockStartupError(), this file should not be modified.
   9:.\Generated_Source\PSoC4/cyfitter_cfg.c **** * This file is automatically generated by PSoC Creator.
  10:.\Generated_Source\PSoC4/cyfitter_cfg.c **** *
  11:.\Generated_Source\PSoC4/cyfitter_cfg.c **** ********************************************************************************
  12:.\Generated_Source\PSoC4/cyfitter_cfg.c **** * Copyright (c) 2007-2015 Cypress Semiconductor.  All rights reserved.
  13:.\Generated_Source\PSoC4/cyfitter_cfg.c **** * You may use this file only in accordance with the license, terms, conditions, 
  14:.\Generated_Source\PSoC4/cyfitter_cfg.c **** * disclaimers, and limitations in the end user license agreement accompanying 
  15:.\Generated_Source\PSoC4/cyfitter_cfg.c **** * the software package with which this file was provided.
  16:.\Generated_Source\PSoC4/cyfitter_cfg.c **** ********************************************************************************/
  17:.\Generated_Source\PSoC4/cyfitter_cfg.c **** 
  18:.\Generated_Source\PSoC4/cyfitter_cfg.c **** #include <string.h>
  19:.\Generated_Source\PSoC4/cyfitter_cfg.c **** #include "cytypes.h"
  20:.\Generated_Source\PSoC4/cyfitter_cfg.c **** #include "cydevice_trm.h"
  21:.\Generated_Source\PSoC4/cyfitter_cfg.c **** #include "cyfitter.h"
  22:.\Generated_Source\PSoC4/cyfitter_cfg.c **** #include "CyLib.h"
  23:.\Generated_Source\PSoC4/cyfitter_cfg.c **** #include "CyLFClk.h"
  24:.\Generated_Source\PSoC4/cyfitter_cfg.c **** #include "cyfitter_cfg.h"
  25:.\Generated_Source\PSoC4/cyfitter_cfg.c **** 
  26:.\Generated_Source\PSoC4/cyfitter_cfg.c **** 
  27:.\Generated_Source\PSoC4/cyfitter_cfg.c **** #if defined(__GNUC__) || defined(__ARMCC_VERSION)
  28:.\Generated_Source\PSoC4/cyfitter_cfg.c ****     #define CYPACKED 
  29:.\Generated_Source\PSoC4/cyfitter_cfg.c ****     #define CYPACKED_ATTR __attribute__ ((packed))
  30:.\Generated_Source\PSoC4/cyfitter_cfg.c ****     #define CYALIGNED __attribute__ ((aligned))
  31:.\Generated_Source\PSoC4/cyfitter_cfg.c ****     #define CY_CFG_UNUSED __attribute__ ((unused))
  32:.\Generated_Source\PSoC4/cyfitter_cfg.c ****     #define CY_CFG_SECTION __attribute__ ((section(".psocinit")))
  33:.\Generated_Source\PSoC4/cyfitter_cfg.c ****     
ARM GAS  C:\Users\egh35\AppData\Local\Temp\ccLUjRwa.s 			page 2


  34:.\Generated_Source\PSoC4/cyfitter_cfg.c ****     #if defined(__ARMCC_VERSION)
  35:.\Generated_Source\PSoC4/cyfitter_cfg.c ****         #define CY_CFG_MEMORY_BARRIER() __memory_changed()
  36:.\Generated_Source\PSoC4/cyfitter_cfg.c ****     #else
  37:.\Generated_Source\PSoC4/cyfitter_cfg.c ****         #define CY_CFG_MEMORY_BARRIER() __sync_synchronize()
  38:.\Generated_Source\PSoC4/cyfitter_cfg.c ****     #endif
  39:.\Generated_Source\PSoC4/cyfitter_cfg.c ****     
  40:.\Generated_Source\PSoC4/cyfitter_cfg.c **** #elif defined(__ICCARM__)
  41:.\Generated_Source\PSoC4/cyfitter_cfg.c ****     #include <intrinsics.h>
  42:.\Generated_Source\PSoC4/cyfitter_cfg.c **** 
  43:.\Generated_Source\PSoC4/cyfitter_cfg.c ****     #define CYPACKED __packed
  44:.\Generated_Source\PSoC4/cyfitter_cfg.c ****     #define CYPACKED_ATTR 
  45:.\Generated_Source\PSoC4/cyfitter_cfg.c ****     #define CYALIGNED _Pragma("data_alignment=4")
  46:.\Generated_Source\PSoC4/cyfitter_cfg.c ****     #define CY_CFG_UNUSED _Pragma("diag_suppress=Pe177")
  47:.\Generated_Source\PSoC4/cyfitter_cfg.c ****     #define CY_CFG_SECTION _Pragma("location=\".psocinit\"")
  48:.\Generated_Source\PSoC4/cyfitter_cfg.c ****     
  49:.\Generated_Source\PSoC4/cyfitter_cfg.c ****     #define CY_CFG_MEMORY_BARRIER() __DMB()
  50:.\Generated_Source\PSoC4/cyfitter_cfg.c ****     
  51:.\Generated_Source\PSoC4/cyfitter_cfg.c **** #else
  52:.\Generated_Source\PSoC4/cyfitter_cfg.c ****     #error Unsupported toolchain
  53:.\Generated_Source\PSoC4/cyfitter_cfg.c **** #endif
  54:.\Generated_Source\PSoC4/cyfitter_cfg.c **** 
  55:.\Generated_Source\PSoC4/cyfitter_cfg.c **** 
  56:.\Generated_Source\PSoC4/cyfitter_cfg.c **** CY_CFG_UNUSED
  57:.\Generated_Source\PSoC4/cyfitter_cfg.c **** static void CYMEMZERO(void *s, size_t n);
  58:.\Generated_Source\PSoC4/cyfitter_cfg.c **** CY_CFG_UNUSED
  59:.\Generated_Source\PSoC4/cyfitter_cfg.c **** static void CYMEMZERO(void *s, size_t n)
  60:.\Generated_Source\PSoC4/cyfitter_cfg.c **** {
  61:.\Generated_Source\PSoC4/cyfitter_cfg.c **** 	(void)memset(s, 0, n);
  62:.\Generated_Source\PSoC4/cyfitter_cfg.c **** }
  63:.\Generated_Source\PSoC4/cyfitter_cfg.c **** CY_CFG_UNUSED
  64:.\Generated_Source\PSoC4/cyfitter_cfg.c **** static void CYCONFIGCPY(void *dest, const void *src, size_t n);
  65:.\Generated_Source\PSoC4/cyfitter_cfg.c **** CY_CFG_UNUSED
  66:.\Generated_Source\PSoC4/cyfitter_cfg.c **** static void CYCONFIGCPY(void *dest, const void *src, size_t n)
  67:.\Generated_Source\PSoC4/cyfitter_cfg.c **** {
  68:.\Generated_Source\PSoC4/cyfitter_cfg.c **** 	(void)memcpy(dest, src, n);
  69:.\Generated_Source\PSoC4/cyfitter_cfg.c **** }
  70:.\Generated_Source\PSoC4/cyfitter_cfg.c **** CY_CFG_UNUSED
  71:.\Generated_Source\PSoC4/cyfitter_cfg.c **** static void CYCONFIGCPYCODE(void *dest, const void *src, size_t n);
  72:.\Generated_Source\PSoC4/cyfitter_cfg.c **** CY_CFG_UNUSED
  73:.\Generated_Source\PSoC4/cyfitter_cfg.c **** static void CYCONFIGCPYCODE(void *dest, const void *src, size_t n)
  74:.\Generated_Source\PSoC4/cyfitter_cfg.c **** {
  75:.\Generated_Source\PSoC4/cyfitter_cfg.c **** 	(void)memcpy(dest, src, n);
  76:.\Generated_Source\PSoC4/cyfitter_cfg.c **** }
  77:.\Generated_Source\PSoC4/cyfitter_cfg.c **** 
  78:.\Generated_Source\PSoC4/cyfitter_cfg.c **** 
  79:.\Generated_Source\PSoC4/cyfitter_cfg.c **** 
  80:.\Generated_Source\PSoC4/cyfitter_cfg.c **** /* Clock startup error codes                                                   */
  81:.\Generated_Source\PSoC4/cyfitter_cfg.c **** #define CYCLOCKSTART_NO_ERROR    0u
  82:.\Generated_Source\PSoC4/cyfitter_cfg.c **** #define CYCLOCKSTART_XTAL_ERROR  1u
  83:.\Generated_Source\PSoC4/cyfitter_cfg.c **** #define CYCLOCKSTART_32KHZ_ERROR 2u
  84:.\Generated_Source\PSoC4/cyfitter_cfg.c **** #define CYCLOCKSTART_PLL_ERROR   3u
  85:.\Generated_Source\PSoC4/cyfitter_cfg.c **** 
  86:.\Generated_Source\PSoC4/cyfitter_cfg.c **** #ifdef CY_NEED_CYCLOCKSTARTUPERROR
  87:.\Generated_Source\PSoC4/cyfitter_cfg.c **** /*******************************************************************************
  88:.\Generated_Source\PSoC4/cyfitter_cfg.c **** * Function Name: CyClockStartupError
  89:.\Generated_Source\PSoC4/cyfitter_cfg.c **** ********************************************************************************
  90:.\Generated_Source\PSoC4/cyfitter_cfg.c **** * Summary:
ARM GAS  C:\Users\egh35\AppData\Local\Temp\ccLUjRwa.s 			page 3


  91:.\Generated_Source\PSoC4/cyfitter_cfg.c **** *  If an error is encountered during clock configuration (crystal startup error,
  92:.\Generated_Source\PSoC4/cyfitter_cfg.c **** *  PLL lock error, etc.), the system will end up here.  Unless reimplemented by
  93:.\Generated_Source\PSoC4/cyfitter_cfg.c **** *  the customer, this function will stop in an infinite loop.
  94:.\Generated_Source\PSoC4/cyfitter_cfg.c **** *
  95:.\Generated_Source\PSoC4/cyfitter_cfg.c **** * Parameters:
  96:.\Generated_Source\PSoC4/cyfitter_cfg.c **** *   void
  97:.\Generated_Source\PSoC4/cyfitter_cfg.c **** *
  98:.\Generated_Source\PSoC4/cyfitter_cfg.c **** * Return:
  99:.\Generated_Source\PSoC4/cyfitter_cfg.c **** *   void
 100:.\Generated_Source\PSoC4/cyfitter_cfg.c **** *
 101:.\Generated_Source\PSoC4/cyfitter_cfg.c **** *******************************************************************************/
 102:.\Generated_Source\PSoC4/cyfitter_cfg.c **** CY_CFG_UNUSED
 103:.\Generated_Source\PSoC4/cyfitter_cfg.c **** static void CyClockStartupError(uint8 errorCode);
 104:.\Generated_Source\PSoC4/cyfitter_cfg.c **** CY_CFG_UNUSED
 105:.\Generated_Source\PSoC4/cyfitter_cfg.c **** static void CyClockStartupError(uint8 errorCode)
 106:.\Generated_Source\PSoC4/cyfitter_cfg.c **** {
 107:.\Generated_Source\PSoC4/cyfitter_cfg.c ****     /* To remove the compiler warning if errorCode not used.                */
 108:.\Generated_Source\PSoC4/cyfitter_cfg.c ****     errorCode = errorCode;
 109:.\Generated_Source\PSoC4/cyfitter_cfg.c **** 
 110:.\Generated_Source\PSoC4/cyfitter_cfg.c ****     /* `#START CyClockStartupError` */
 111:.\Generated_Source\PSoC4/cyfitter_cfg.c **** 
 112:.\Generated_Source\PSoC4/cyfitter_cfg.c ****     /* If we have a clock startup error (bad MHz crystal, PLL lock, etc.),  */
 113:.\Generated_Source\PSoC4/cyfitter_cfg.c ****     /* we will end up here to allow the customer to implement something to  */
 114:.\Generated_Source\PSoC4/cyfitter_cfg.c ****     /* deal with the clock condition.                                       */
 115:.\Generated_Source\PSoC4/cyfitter_cfg.c **** 
 116:.\Generated_Source\PSoC4/cyfitter_cfg.c ****     /* `#END` */
 117:.\Generated_Source\PSoC4/cyfitter_cfg.c **** 
 118:.\Generated_Source\PSoC4/cyfitter_cfg.c ****     /* If nothing else, stop here since the clocks have not started         */
 119:.\Generated_Source\PSoC4/cyfitter_cfg.c ****     /* correctly.                                                           */
 120:.\Generated_Source\PSoC4/cyfitter_cfg.c ****     while(1) {}
 121:.\Generated_Source\PSoC4/cyfitter_cfg.c **** }
 122:.\Generated_Source\PSoC4/cyfitter_cfg.c **** #endif
 123:.\Generated_Source\PSoC4/cyfitter_cfg.c **** 
 124:.\Generated_Source\PSoC4/cyfitter_cfg.c **** #define CY_CFG_BASE_ADDR_COUNT 9u
 125:.\Generated_Source\PSoC4/cyfitter_cfg.c **** CYPACKED typedef struct
 126:.\Generated_Source\PSoC4/cyfitter_cfg.c **** {
 127:.\Generated_Source\PSoC4/cyfitter_cfg.c **** 	uint8 offset;
 128:.\Generated_Source\PSoC4/cyfitter_cfg.c **** 	uint8 value;
 129:.\Generated_Source\PSoC4/cyfitter_cfg.c **** } CYPACKED_ATTR cy_cfg_addrvalue_t;
 130:.\Generated_Source\PSoC4/cyfitter_cfg.c **** 
 131:.\Generated_Source\PSoC4/cyfitter_cfg.c **** 
 132:.\Generated_Source\PSoC4/cyfitter_cfg.c **** 
 133:.\Generated_Source\PSoC4/cyfitter_cfg.c **** /*******************************************************************************
 134:.\Generated_Source\PSoC4/cyfitter_cfg.c **** * Function Name: cfg_write_bytes32
 135:.\Generated_Source\PSoC4/cyfitter_cfg.c **** ********************************************************************************
 136:.\Generated_Source\PSoC4/cyfitter_cfg.c **** * Summary:
 137:.\Generated_Source\PSoC4/cyfitter_cfg.c **** *  This function is used for setting up the chip configuration areas that
 138:.\Generated_Source\PSoC4/cyfitter_cfg.c **** *  contain relatively sparse data.
 139:.\Generated_Source\PSoC4/cyfitter_cfg.c **** *
 140:.\Generated_Source\PSoC4/cyfitter_cfg.c **** * Parameters:
 141:.\Generated_Source\PSoC4/cyfitter_cfg.c **** *   void
 142:.\Generated_Source\PSoC4/cyfitter_cfg.c **** *
 143:.\Generated_Source\PSoC4/cyfitter_cfg.c **** * Return:
 144:.\Generated_Source\PSoC4/cyfitter_cfg.c **** *   void
 145:.\Generated_Source\PSoC4/cyfitter_cfg.c **** *
 146:.\Generated_Source\PSoC4/cyfitter_cfg.c **** *******************************************************************************/
 147:.\Generated_Source\PSoC4/cyfitter_cfg.c **** static void cfg_write_bytes32(const uint32 addr_table[], const cy_cfg_addrvalue_t data_table[]);
ARM GAS  C:\Users\egh35\AppData\Local\Temp\ccLUjRwa.s 			page 4


 148:.\Generated_Source\PSoC4/cyfitter_cfg.c **** static void cfg_write_bytes32(const uint32 addr_table[], const cy_cfg_addrvalue_t data_table[])
 149:.\Generated_Source\PSoC4/cyfitter_cfg.c **** {
  25              		.loc 1 149 0
  26              		.cfi_startproc
  27              	.LVL0:
  28 0000 F0B5     		push	{r4, r5, r6, r7, lr}
  29              		.cfi_def_cfa_offset 20
  30              		.cfi_offset 4, -20
  31              		.cfi_offset 5, -16
  32              		.cfi_offset 6, -12
  33              		.cfi_offset 7, -8
  34              		.cfi_offset 14, -4
  35              	.LVL1:
 150:.\Generated_Source\PSoC4/cyfitter_cfg.c **** 	/* For 32-bit little-endian architectures */
 151:.\Generated_Source\PSoC4/cyfitter_cfg.c **** 	uint32 i, j = 0u;
  36              		.loc 1 151 0
  37 0002 0022     		mov	r2, #0
 152:.\Generated_Source\PSoC4/cyfitter_cfg.c **** 	for (i = 0u; i < CY_CFG_BASE_ADDR_COUNT; i++)
  38              		.loc 1 152 0
  39 0004 0027     		mov	r7, #0
  40              	.LBB2:
 153:.\Generated_Source\PSoC4/cyfitter_cfg.c **** 	{
 154:.\Generated_Source\PSoC4/cyfitter_cfg.c **** 		uint32 baseAddr = addr_table[i];
 155:.\Generated_Source\PSoC4/cyfitter_cfg.c **** 		uint8 count = (uint8)baseAddr;
 156:.\Generated_Source\PSoC4/cyfitter_cfg.c **** 		baseAddr &= 0xFFFFFF00u;
  41              		.loc 1 156 0
  42 0006 FF23     		mov	r3, #255
  43 0008 9C46     		mov	ip, r3
  44              	.LBE2:
 152:.\Generated_Source\PSoC4/cyfitter_cfg.c **** 	for (i = 0u; i < CY_CFG_BASE_ADDR_COUNT; i++)
  45              		.loc 1 152 0
  46 000a 11E0     		b	.L2
  47              	.LVL2:
  48              	.L5:
  49              	.LBB3:
 154:.\Generated_Source\PSoC4/cyfitter_cfg.c **** 		uint32 baseAddr = addr_table[i];
  50              		.loc 1 154 0
  51 000c BB00     		lsl	r3, r7, #2
  52 000e C658     		ldr	r6, [r0, r3]
  53              	.LVL3:
 155:.\Generated_Source\PSoC4/cyfitter_cfg.c **** 		uint8 count = (uint8)baseAddr;
  54              		.loc 1 155 0
  55 0010 F3B2     		uxtb	r3, r6
  56              	.LVL4:
  57              		.loc 1 156 0
  58 0012 6446     		mov	r4, ip
  59 0014 A643     		bic	r6, r4
  60              	.LVL5:
 157:.\Generated_Source\PSoC4/cyfitter_cfg.c **** 		while (count != 0u)
  61              		.loc 1 157 0
  62 0016 08E0     		b	.L3
  63              	.L4:
 158:.\Generated_Source\PSoC4/cyfitter_cfg.c **** 		{
 159:.\Generated_Source\PSoC4/cyfitter_cfg.c **** 			CY_SET_XTND_REG8((void CYFAR *)(baseAddr + data_table[j].offset), data_table[j].value);
  64              		.loc 1 159 0
  65 0018 5400     		lsl	r4, r2, #1
  66 001a 0C19     		add	r4, r1, r4
ARM GAS  C:\Users\egh35\AppData\Local\Temp\ccLUjRwa.s 			page 5


  67 001c 2578     		ldrb	r5, [r4]
  68 001e AD19     		add	r5, r5, r6
  69 0020 6478     		ldrb	r4, [r4, #1]
  70 0022 2C70     		strb	r4, [r5]
 160:.\Generated_Source\PSoC4/cyfitter_cfg.c **** 			j++;
  71              		.loc 1 160 0
  72 0024 0132     		add	r2, r2, #1
  73              	.LVL6:
 161:.\Generated_Source\PSoC4/cyfitter_cfg.c **** 			count--;
  74              		.loc 1 161 0
  75 0026 013B     		sub	r3, r3, #1
  76              	.LVL7:
  77 0028 DBB2     		uxtb	r3, r3
  78              	.LVL8:
  79              	.L3:
 157:.\Generated_Source\PSoC4/cyfitter_cfg.c **** 		while (count != 0u)
  80              		.loc 1 157 0 discriminator 1
  81 002a 002B     		cmp	r3, #0
  82 002c F4D1     		bne	.L4
  83              	.LBE3:
 152:.\Generated_Source\PSoC4/cyfitter_cfg.c **** 	for (i = 0u; i < CY_CFG_BASE_ADDR_COUNT; i++)
  84              		.loc 1 152 0
  85 002e 0137     		add	r7, r7, #1
  86              	.LVL9:
  87              	.L2:
 152:.\Generated_Source\PSoC4/cyfitter_cfg.c **** 	for (i = 0u; i < CY_CFG_BASE_ADDR_COUNT; i++)
  88              		.loc 1 152 0 is_stmt 0 discriminator 1
  89 0030 082F     		cmp	r7, #8
  90 0032 EBD9     		bls	.L5
 162:.\Generated_Source\PSoC4/cyfitter_cfg.c **** 		}
 163:.\Generated_Source\PSoC4/cyfitter_cfg.c **** 	}
 164:.\Generated_Source\PSoC4/cyfitter_cfg.c **** }
  91              		.loc 1 164 0 is_stmt 1
  92              		@ sp needed
  93              	.LVL10:
  94 0034 F0BD     		pop	{r4, r5, r6, r7, pc}
  95              		.cfi_endproc
  96              	.LFE3:
  97              		.size	cfg_write_bytes32, .-cfg_write_bytes32
  98 0036 C046     		.section	.text.CYMEMZERO,"ax",%progbits
  99              		.align	2
 100              		.code	16
 101              		.thumb_func
 102              		.type	CYMEMZERO, %function
 103              	CYMEMZERO:
 104              	.LFB0:
  60:.\Generated_Source\PSoC4/cyfitter_cfg.c **** {
 105              		.loc 1 60 0
 106              		.cfi_startproc
 107              	.LVL11:
 108 0000 08B5     		push	{r3, lr}
 109              		.cfi_def_cfa_offset 8
 110              		.cfi_offset 3, -8
 111              		.cfi_offset 14, -4
 112 0002 0A1C     		mov	r2, r1
  61:.\Generated_Source\PSoC4/cyfitter_cfg.c **** 	(void)memset(s, 0, n);
 113              		.loc 1 61 0
ARM GAS  C:\Users\egh35\AppData\Local\Temp\ccLUjRwa.s 			page 6


 114 0004 0021     		mov	r1, #0
 115              	.LVL12:
 116 0006 FFF7FEFF 		bl	memset
 117              	.LVL13:
  62:.\Generated_Source\PSoC4/cyfitter_cfg.c **** }
 118              		.loc 1 62 0
 119              		@ sp needed
 120 000a 08BD     		pop	{r3, pc}
 121              		.cfi_endproc
 122              	.LFE0:
 123              		.size	CYMEMZERO, .-CYMEMZERO
 124              		.section	.psocinit,"ax",%progbits
 125              		.align	2
 126              		.code	16
 127              		.thumb_func
 128              		.type	ClockSetup, %function
 129              	ClockSetup:
 130              	.LFB4:
 165:.\Generated_Source\PSoC4/cyfitter_cfg.c **** 
 166:.\Generated_Source\PSoC4/cyfitter_cfg.c **** 
 167:.\Generated_Source\PSoC4/cyfitter_cfg.c **** /*******************************************************************************
 168:.\Generated_Source\PSoC4/cyfitter_cfg.c **** * Function Name: ClockSetup
 169:.\Generated_Source\PSoC4/cyfitter_cfg.c **** ********************************************************************************
 170:.\Generated_Source\PSoC4/cyfitter_cfg.c **** *
 171:.\Generated_Source\PSoC4/cyfitter_cfg.c **** * Summary:
 172:.\Generated_Source\PSoC4/cyfitter_cfg.c **** *   Performs the initialization of all of the clocks in the device based on the
 173:.\Generated_Source\PSoC4/cyfitter_cfg.c **** *   settings in the Clock tab of the DWR.  This includes enabling the requested
 174:.\Generated_Source\PSoC4/cyfitter_cfg.c **** *   clocks and setting the necessary dividers to produce the desired frequency. 
 175:.\Generated_Source\PSoC4/cyfitter_cfg.c **** *
 176:.\Generated_Source\PSoC4/cyfitter_cfg.c **** * Parameters:
 177:.\Generated_Source\PSoC4/cyfitter_cfg.c **** *   void
 178:.\Generated_Source\PSoC4/cyfitter_cfg.c **** *
 179:.\Generated_Source\PSoC4/cyfitter_cfg.c **** * Return:
 180:.\Generated_Source\PSoC4/cyfitter_cfg.c **** *   void
 181:.\Generated_Source\PSoC4/cyfitter_cfg.c **** *
 182:.\Generated_Source\PSoC4/cyfitter_cfg.c **** *******************************************************************************/
 183:.\Generated_Source\PSoC4/cyfitter_cfg.c **** static void ClockSetup(void);
 184:.\Generated_Source\PSoC4/cyfitter_cfg.c **** CY_CFG_SECTION
 185:.\Generated_Source\PSoC4/cyfitter_cfg.c **** static void ClockSetup(void)
 186:.\Generated_Source\PSoC4/cyfitter_cfg.c **** {
 131              		.loc 1 186 0
 132              		.cfi_startproc
 133 0000 10B5     		push	{r4, lr}
 134              		.cfi_def_cfa_offset 8
 135              		.cfi_offset 4, -8
 136              		.cfi_offset 14, -4
 187:.\Generated_Source\PSoC4/cyfitter_cfg.c **** 	/* Enable HALF_EN before trimming for the flash accelerator. */
 188:.\Generated_Source\PSoC4/cyfitter_cfg.c **** 	CY_SET_REG32((void CYXDATA *)(CYREG_CLK_SELECT), (CY_GET_REG32((void *)CYREG_CLK_SELECT) | 0x00040
 137              		.loc 1 188 0
 138 0002 154C     		ldr	r4, .L8
 139 0004 2268     		ldr	r2, [r4]
 140 0006 8023     		mov	r3, #128
 141 0008 DB02     		lsl	r3, r3, #11
 142 000a 1343     		orr	r3, r2
 143 000c 2360     		str	r3, [r4]
 189:.\Generated_Source\PSoC4/cyfitter_cfg.c **** 
 190:.\Generated_Source\PSoC4/cyfitter_cfg.c **** 	/* Setup and trim IMO based on desired frequency. */
ARM GAS  C:\Users\egh35\AppData\Local\Temp\ccLUjRwa.s 			page 7


 191:.\Generated_Source\PSoC4/cyfitter_cfg.c **** 	CySysClkWriteImoFreq(24u);
 144              		.loc 1 191 0
 145 000e 1820     		mov	r0, #24
 146 0010 FFF7FEFF 		bl	CySysClkWriteImoFreq
 147              	.LVL14:
 192:.\Generated_Source\PSoC4/cyfitter_cfg.c **** 
 193:.\Generated_Source\PSoC4/cyfitter_cfg.c **** 	/* Disable HALF_EN since it is not required at this IMO frequency. */
 194:.\Generated_Source\PSoC4/cyfitter_cfg.c **** 	CY_SET_REG32((void CYXDATA *)(CYREG_CLK_SELECT), (CY_GET_REG32((void *)CYREG_CLK_SELECT) & 0xFFFBF
 148              		.loc 1 194 0
 149 0014 2268     		ldr	r2, [r4]
 150 0016 114B     		ldr	r3, .L8+4
 151 0018 1340     		and	r3, r2
 152 001a 2360     		str	r3, [r4]
 195:.\Generated_Source\PSoC4/cyfitter_cfg.c **** 	/* CYDEV_CLK_ILO_CONFIG Starting address: CYDEV_CLK_ILO_CONFIG */
 196:.\Generated_Source\PSoC4/cyfitter_cfg.c **** 	CY_SET_XTND_REG32((void CYFAR *)(CYREG_CLK_ILO_CONFIG), 0x80000006u);
 153              		.loc 1 196 0
 154 001c 104A     		ldr	r2, .L8+8
 155 001e 114B     		ldr	r3, .L8+12
 156 0020 1A60     		str	r2, [r3]
 197:.\Generated_Source\PSoC4/cyfitter_cfg.c **** 
 198:.\Generated_Source\PSoC4/cyfitter_cfg.c **** 
 199:.\Generated_Source\PSoC4/cyfitter_cfg.c **** 	/* CYDEV_CLK_SELECT00 Starting address: CYDEV_CLK_SELECT00 */
 200:.\Generated_Source\PSoC4/cyfitter_cfg.c **** 	CY_SET_XTND_REG32((void CYFAR *)(CYREG_CLK_SELECT03), 0x00000020u);
 157              		.loc 1 200 0
 158 0022 2022     		mov	r2, #32
 159 0024 104B     		ldr	r3, .L8+16
 160 0026 1A60     		str	r2, [r3]
 201:.\Generated_Source\PSoC4/cyfitter_cfg.c **** 	CY_SET_XTND_REG32((void CYFAR *)(CYREG_CLK_SELECT08), 0x00000010u);
 161              		.loc 1 201 0
 162 0028 1022     		mov	r2, #16
 163 002a 104B     		ldr	r3, .L8+20
 164 002c 1A60     		str	r2, [r3]
 202:.\Generated_Source\PSoC4/cyfitter_cfg.c **** 
 203:.\Generated_Source\PSoC4/cyfitter_cfg.c **** 	/* CYDEV_CLK_IMO_CONFIG Starting address: CYDEV_CLK_IMO_CONFIG */
 204:.\Generated_Source\PSoC4/cyfitter_cfg.c **** 	CY_SET_XTND_REG32((void CYFAR *)(CYREG_CLK_IMO_CONFIG), 0x80000000u);
 165              		.loc 1 204 0
 166 002e 8023     		mov	r3, #128
 167 0030 1B06     		lsl	r3, r3, #24
 168 0032 0F4A     		ldr	r2, .L8+24
 169 0034 1360     		str	r3, [r2]
 205:.\Generated_Source\PSoC4/cyfitter_cfg.c **** 
 206:.\Generated_Source\PSoC4/cyfitter_cfg.c **** 	/* CYDEV_CLK_DIVIDER_A00 Starting address: CYDEV_CLK_DIVIDER_A00 */
 207:.\Generated_Source\PSoC4/cyfitter_cfg.c **** 	CY_SET_XTND_REG32((void CYFAR *)(CYREG_CLK_DIVIDER_A00), 0x80000000u);
 170              		.loc 1 207 0
 171 0036 0F4A     		ldr	r2, .L8+28
 172 0038 1360     		str	r3, [r2]
 208:.\Generated_Source\PSoC4/cyfitter_cfg.c **** 
 209:.\Generated_Source\PSoC4/cyfitter_cfg.c **** 	/* CYDEV_CLK_DIVIDER_B00 Starting address: CYDEV_CLK_DIVIDER_B00 */
 210:.\Generated_Source\PSoC4/cyfitter_cfg.c **** 	CY_SET_XTND_REG32((void CYFAR *)(CYREG_CLK_DIVIDER_B00), 0x800000CFu);
 173              		.loc 1 210 0
 174 003a 0F4A     		ldr	r2, .L8+32
 175 003c 0F4B     		ldr	r3, .L8+36
 176 003e 1A60     		str	r2, [r3]
 211:.\Generated_Source\PSoC4/cyfitter_cfg.c **** 
 212:.\Generated_Source\PSoC4/cyfitter_cfg.c **** 	(void)CyIntSetVector(9u, &CySysWdtIsr);
 177              		.loc 1 212 0
 178 0040 0920     		mov	r0, #9
ARM GAS  C:\Users\egh35\AppData\Local\Temp\ccLUjRwa.s 			page 8


 179 0042 0F49     		ldr	r1, .L8+40
 180 0044 FFF7FEFF 		bl	CyIntSetVector
 181              	.LVL15:
 213:.\Generated_Source\PSoC4/cyfitter_cfg.c **** 	CyIntEnable(9u);
 182              		.loc 1 213 0
 183 0048 0920     		mov	r0, #9
 184 004a FFF7FEFF 		bl	CyIntEnable
 185              	.LVL16:
 214:.\Generated_Source\PSoC4/cyfitter_cfg.c **** 	CY_SET_XTND_REG32((void CYFAR *)(CYREG_WDT_CONFIG), 0x00000000u);
 186              		.loc 1 214 0
 187 004e 0022     		mov	r2, #0
 188 0050 0C4B     		ldr	r3, .L8+44
 189 0052 1A60     		str	r2, [r3]
 215:.\Generated_Source\PSoC4/cyfitter_cfg.c **** }
 190              		.loc 1 215 0
 191              		@ sp needed
 192 0054 10BD     		pop	{r4, pc}
 193              	.L9:
 194 0056 C046     		.align	2
 195              	.L8:
 196 0058 00010B40 		.word	1074462976
 197 005c FFFFFBFF 		.word	-262145
 198 0060 06000080 		.word	-2147483642
 199 0064 04010B40 		.word	1074462980
 200 0068 0C020240 		.word	1073873420
 201 006c 20020240 		.word	1073873440
 202 0070 08010B40 		.word	1074462984
 203 0074 00000240 		.word	1073872896
 204 0078 CF000080 		.word	-2147483441
 205 007c 40000240 		.word	1073872960
 206 0080 00000000 		.word	CySysWdtIsr
 207 0084 0C020B40 		.word	1074463244
 208              		.cfi_endproc
 209              	.LFE4:
 210              		.size	ClockSetup, .-ClockSetup
 211              		.align	2
 212              		.global	cyfitter_cfg
 213              		.code	16
 214              		.thumb_func
 215              		.type	cyfitter_cfg, %function
 216              	cyfitter_cfg:
 217              	.LFB6:
 216:.\Generated_Source\PSoC4/cyfitter_cfg.c **** 
 217:.\Generated_Source\PSoC4/cyfitter_cfg.c **** 
 218:.\Generated_Source\PSoC4/cyfitter_cfg.c **** /* Analog API Functions */
 219:.\Generated_Source\PSoC4/cyfitter_cfg.c **** 
 220:.\Generated_Source\PSoC4/cyfitter_cfg.c **** 
 221:.\Generated_Source\PSoC4/cyfitter_cfg.c **** /*******************************************************************************
 222:.\Generated_Source\PSoC4/cyfitter_cfg.c **** * Function Name: AnalogSetDefault
 223:.\Generated_Source\PSoC4/cyfitter_cfg.c **** ********************************************************************************
 224:.\Generated_Source\PSoC4/cyfitter_cfg.c **** *
 225:.\Generated_Source\PSoC4/cyfitter_cfg.c **** * Summary:
 226:.\Generated_Source\PSoC4/cyfitter_cfg.c **** *  Sets up the analog portions of the chip to default values based on chip
 227:.\Generated_Source\PSoC4/cyfitter_cfg.c **** *  configuration options from the project.
 228:.\Generated_Source\PSoC4/cyfitter_cfg.c **** *
 229:.\Generated_Source\PSoC4/cyfitter_cfg.c **** * Parameters:
 230:.\Generated_Source\PSoC4/cyfitter_cfg.c **** *  void
ARM GAS  C:\Users\egh35\AppData\Local\Temp\ccLUjRwa.s 			page 9


 231:.\Generated_Source\PSoC4/cyfitter_cfg.c **** *
 232:.\Generated_Source\PSoC4/cyfitter_cfg.c **** * Return:
 233:.\Generated_Source\PSoC4/cyfitter_cfg.c **** *  void
 234:.\Generated_Source\PSoC4/cyfitter_cfg.c **** *
 235:.\Generated_Source\PSoC4/cyfitter_cfg.c **** *******************************************************************************/
 236:.\Generated_Source\PSoC4/cyfitter_cfg.c **** static void AnalogSetDefault(void);
 237:.\Generated_Source\PSoC4/cyfitter_cfg.c **** static void AnalogSetDefault(void)
 238:.\Generated_Source\PSoC4/cyfitter_cfg.c **** {
 239:.\Generated_Source\PSoC4/cyfitter_cfg.c **** }
 240:.\Generated_Source\PSoC4/cyfitter_cfg.c **** 
 241:.\Generated_Source\PSoC4/cyfitter_cfg.c **** #define CY_AMUX_UNUSED CYREG_CM0_ROM_DWT
 242:.\Generated_Source\PSoC4/cyfitter_cfg.c **** 
 243:.\Generated_Source\PSoC4/cyfitter_cfg.c **** 
 244:.\Generated_Source\PSoC4/cyfitter_cfg.c **** /*******************************************************************************
 245:.\Generated_Source\PSoC4/cyfitter_cfg.c **** * Function Name: cyfitter_cfg
 246:.\Generated_Source\PSoC4/cyfitter_cfg.c **** ********************************************************************************
 247:.\Generated_Source\PSoC4/cyfitter_cfg.c **** * Summary:
 248:.\Generated_Source\PSoC4/cyfitter_cfg.c **** *  This function is called by the start-up code for the selected device. It
 249:.\Generated_Source\PSoC4/cyfitter_cfg.c **** *  performs all of the necessary device configuration based on the design
 250:.\Generated_Source\PSoC4/cyfitter_cfg.c **** *  settings.  This includes settings from the Design Wide Resources (DWR) such
 251:.\Generated_Source\PSoC4/cyfitter_cfg.c **** *  as Clocks and Pins as well as any component configuration that is necessary.
 252:.\Generated_Source\PSoC4/cyfitter_cfg.c **** *
 253:.\Generated_Source\PSoC4/cyfitter_cfg.c **** * Parameters:  
 254:.\Generated_Source\PSoC4/cyfitter_cfg.c **** *   void
 255:.\Generated_Source\PSoC4/cyfitter_cfg.c **** *
 256:.\Generated_Source\PSoC4/cyfitter_cfg.c **** * Return:
 257:.\Generated_Source\PSoC4/cyfitter_cfg.c **** *   void
 258:.\Generated_Source\PSoC4/cyfitter_cfg.c **** *
 259:.\Generated_Source\PSoC4/cyfitter_cfg.c **** *******************************************************************************/
 260:.\Generated_Source\PSoC4/cyfitter_cfg.c **** CY_CFG_SECTION
 261:.\Generated_Source\PSoC4/cyfitter_cfg.c **** void cyfitter_cfg(void)
 262:.\Generated_Source\PSoC4/cyfitter_cfg.c **** {
 218              		.loc 1 262 0
 219              		.cfi_startproc
 220 0088 38B5     		push	{r3, r4, r5, lr}
 221              		.cfi_def_cfa_offset 16
 222              		.cfi_offset 3, -16
 223              		.cfi_offset 4, -12
 224              		.cfi_offset 5, -8
 225              		.cfi_offset 14, -4
 263:.\Generated_Source\PSoC4/cyfitter_cfg.c **** 	/* Disable interrupts by default. Let user enable if/when they want. */
 264:.\Generated_Source\PSoC4/cyfitter_cfg.c **** 	CyGlobalIntDisable;
 226              		.loc 1 264 0
 227              	@ 264 ".\Generated_Source\PSoC4\cyfitter_cfg.c" 1
 228 008a 72B6     		CPSID   i
 229              	@ 0 "" 2
 265:.\Generated_Source\PSoC4/cyfitter_cfg.c **** 
 266:.\Generated_Source\PSoC4/cyfitter_cfg.c **** 	/* Enable the clock in the interrupt controller for the routed interrupts */
 267:.\Generated_Source\PSoC4/cyfitter_cfg.c **** 	CY_SET_REG8((void *)CYREG_UDB_UDBIF_INT_CLK_CTL, 0x01u);
 230              		.loc 1 267 0
 231              		.code	16
 232 008c 0122     		mov	r2, #1
 233 008e 2E4B     		ldr	r3, .L13
 234 0090 1A70     		strb	r2, [r3]
 235              	.LVL17:
 236              	.LBB4:
 268:.\Generated_Source\PSoC4/cyfitter_cfg.c **** 	{
ARM GAS  C:\Users\egh35\AppData\Local\Temp\ccLUjRwa.s 			page 10


 269:.\Generated_Source\PSoC4/cyfitter_cfg.c **** 		static const uint32 CYCODE cy_cfg_addr_table[] = {
 270:.\Generated_Source\PSoC4/cyfitter_cfg.c **** 			0x400F0001u, /* Base address: 0x400F0000 Count: 1 */
 271:.\Generated_Source\PSoC4/cyfitter_cfg.c **** 			0x400F3028u, /* Base address: 0x400F3000 Count: 40 */
 272:.\Generated_Source\PSoC4/cyfitter_cfg.c **** 			0x400F3108u, /* Base address: 0x400F3100 Count: 8 */
 273:.\Generated_Source\PSoC4/cyfitter_cfg.c **** 			0x400F321Fu, /* Base address: 0x400F3200 Count: 31 */
 274:.\Generated_Source\PSoC4/cyfitter_cfg.c **** 			0x400F3315u, /* Base address: 0x400F3300 Count: 21 */
 275:.\Generated_Source\PSoC4/cyfitter_cfg.c **** 			0x400F4002u, /* Base address: 0x400F4000 Count: 2 */
 276:.\Generated_Source\PSoC4/cyfitter_cfg.c **** 			0x400F4106u, /* Base address: 0x400F4100 Count: 6 */
 277:.\Generated_Source\PSoC4/cyfitter_cfg.c **** 			0x400F4304u, /* Base address: 0x400F4300 Count: 4 */
 278:.\Generated_Source\PSoC4/cyfitter_cfg.c **** 			0x400F6002u, /* Base address: 0x400F6000 Count: 2 */
 279:.\Generated_Source\PSoC4/cyfitter_cfg.c **** 		};
 280:.\Generated_Source\PSoC4/cyfitter_cfg.c **** 
 281:.\Generated_Source\PSoC4/cyfitter_cfg.c **** 		static const cy_cfg_addrvalue_t CYCODE cy_cfg_data_table[] = {
 282:.\Generated_Source\PSoC4/cyfitter_cfg.c **** 			{0x82u, 0x0Du},
 283:.\Generated_Source\PSoC4/cyfitter_cfg.c **** 			{0x40u, 0x51u},
 284:.\Generated_Source\PSoC4/cyfitter_cfg.c **** 			{0x49u, 0xFFu},
 285:.\Generated_Source\PSoC4/cyfitter_cfg.c **** 			{0x4Au, 0xFFu},
 286:.\Generated_Source\PSoC4/cyfitter_cfg.c **** 			{0x4Bu, 0xFFu},
 287:.\Generated_Source\PSoC4/cyfitter_cfg.c **** 			{0x4Fu, 0x01u},
 288:.\Generated_Source\PSoC4/cyfitter_cfg.c **** 			{0x50u, 0x18u},
 289:.\Generated_Source\PSoC4/cyfitter_cfg.c **** 			{0x5Au, 0x04u},
 290:.\Generated_Source\PSoC4/cyfitter_cfg.c **** 			{0x5Du, 0x09u},
 291:.\Generated_Source\PSoC4/cyfitter_cfg.c **** 			{0x5Fu, 0x01u},
 292:.\Generated_Source\PSoC4/cyfitter_cfg.c **** 			{0x60u, 0x40u},
 293:.\Generated_Source\PSoC4/cyfitter_cfg.c **** 			{0x62u, 0x40u},
 294:.\Generated_Source\PSoC4/cyfitter_cfg.c **** 			{0x64u, 0x40u},
 295:.\Generated_Source\PSoC4/cyfitter_cfg.c **** 			{0x65u, 0x40u},
 296:.\Generated_Source\PSoC4/cyfitter_cfg.c **** 			{0x66u, 0x80u},
 297:.\Generated_Source\PSoC4/cyfitter_cfg.c **** 			{0x68u, 0x80u},
 298:.\Generated_Source\PSoC4/cyfitter_cfg.c **** 			{0x6Au, 0x80u},
 299:.\Generated_Source\PSoC4/cyfitter_cfg.c **** 			{0x6Cu, 0x80u},
 300:.\Generated_Source\PSoC4/cyfitter_cfg.c **** 			{0x6Eu, 0x80u},
 301:.\Generated_Source\PSoC4/cyfitter_cfg.c **** 			{0xC0u, 0x41u},
 302:.\Generated_Source\PSoC4/cyfitter_cfg.c **** 			{0xC9u, 0xFFu},
 303:.\Generated_Source\PSoC4/cyfitter_cfg.c **** 			{0xCAu, 0xFFu},
 304:.\Generated_Source\PSoC4/cyfitter_cfg.c **** 			{0xCBu, 0xFFu},
 305:.\Generated_Source\PSoC4/cyfitter_cfg.c **** 			{0xCDu, 0x83u},
 306:.\Generated_Source\PSoC4/cyfitter_cfg.c **** 			{0xCEu, 0x03u},
 307:.\Generated_Source\PSoC4/cyfitter_cfg.c **** 			{0xCFu, 0x01u},
 308:.\Generated_Source\PSoC4/cyfitter_cfg.c **** 			{0xD0u, 0x18u},
 309:.\Generated_Source\PSoC4/cyfitter_cfg.c **** 			{0xD2u, 0x80u},
 310:.\Generated_Source\PSoC4/cyfitter_cfg.c **** 			{0xDAu, 0x04u},
 311:.\Generated_Source\PSoC4/cyfitter_cfg.c **** 			{0xDBu, 0x04u},
 312:.\Generated_Source\PSoC4/cyfitter_cfg.c **** 			{0xDDu, 0x99u},
 313:.\Generated_Source\PSoC4/cyfitter_cfg.c **** 			{0xDFu, 0x01u},
 314:.\Generated_Source\PSoC4/cyfitter_cfg.c **** 			{0xE0u, 0x40u},
 315:.\Generated_Source\PSoC4/cyfitter_cfg.c **** 			{0xE2u, 0x40u},
 316:.\Generated_Source\PSoC4/cyfitter_cfg.c **** 			{0xE4u, 0x40u},
 317:.\Generated_Source\PSoC4/cyfitter_cfg.c **** 			{0xE5u, 0x40u},
 318:.\Generated_Source\PSoC4/cyfitter_cfg.c **** 			{0xE6u, 0x80u},
 319:.\Generated_Source\PSoC4/cyfitter_cfg.c **** 			{0xE8u, 0x80u},
 320:.\Generated_Source\PSoC4/cyfitter_cfg.c **** 			{0xEAu, 0x80u},
 321:.\Generated_Source\PSoC4/cyfitter_cfg.c **** 			{0xECu, 0x80u},
 322:.\Generated_Source\PSoC4/cyfitter_cfg.c **** 			{0xEEu, 0x80u},
 323:.\Generated_Source\PSoC4/cyfitter_cfg.c **** 			{0x42u, 0x02u},
 324:.\Generated_Source\PSoC4/cyfitter_cfg.c **** 			{0x46u, 0x82u},
 325:.\Generated_Source\PSoC4/cyfitter_cfg.c **** 			{0x48u, 0x01u},
ARM GAS  C:\Users\egh35\AppData\Local\Temp\ccLUjRwa.s 			page 11


 326:.\Generated_Source\PSoC4/cyfitter_cfg.c **** 			{0x74u, 0x01u},
 327:.\Generated_Source\PSoC4/cyfitter_cfg.c **** 			{0x76u, 0x80u},
 328:.\Generated_Source\PSoC4/cyfitter_cfg.c **** 			{0x77u, 0x80u},
 329:.\Generated_Source\PSoC4/cyfitter_cfg.c **** 			{0xD0u, 0x98u},
 330:.\Generated_Source\PSoC4/cyfitter_cfg.c **** 			{0xD2u, 0x08u},
 331:.\Generated_Source\PSoC4/cyfitter_cfg.c **** 			{0x0Eu, 0x01u},
 332:.\Generated_Source\PSoC4/cyfitter_cfg.c **** 			{0x2Eu, 0x01u},
 333:.\Generated_Source\PSoC4/cyfitter_cfg.c **** 			{0x30u, 0x01u},
 334:.\Generated_Source\PSoC4/cyfitter_cfg.c **** 			{0x3Eu, 0x01u},
 335:.\Generated_Source\PSoC4/cyfitter_cfg.c **** 			{0x40u, 0x41u},
 336:.\Generated_Source\PSoC4/cyfitter_cfg.c **** 			{0x45u, 0xECu},
 337:.\Generated_Source\PSoC4/cyfitter_cfg.c **** 			{0x47u, 0x20u},
 338:.\Generated_Source\PSoC4/cyfitter_cfg.c **** 			{0x48u, 0x23u},
 339:.\Generated_Source\PSoC4/cyfitter_cfg.c **** 			{0x49u, 0xFFu},
 340:.\Generated_Source\PSoC4/cyfitter_cfg.c **** 			{0x4Au, 0xFFu},
 341:.\Generated_Source\PSoC4/cyfitter_cfg.c **** 			{0x4Bu, 0xFFu},
 342:.\Generated_Source\PSoC4/cyfitter_cfg.c **** 			{0x4Du, 0x83u},
 343:.\Generated_Source\PSoC4/cyfitter_cfg.c **** 			{0x4Eu, 0x03u},
 344:.\Generated_Source\PSoC4/cyfitter_cfg.c **** 			{0x4Fu, 0x01u},
 345:.\Generated_Source\PSoC4/cyfitter_cfg.c **** 			{0x50u, 0x18u},
 346:.\Generated_Source\PSoC4/cyfitter_cfg.c **** 			{0x54u, 0x01u},
 347:.\Generated_Source\PSoC4/cyfitter_cfg.c **** 			{0x56u, 0x04u},
 348:.\Generated_Source\PSoC4/cyfitter_cfg.c **** 			{0x58u, 0x04u},
 349:.\Generated_Source\PSoC4/cyfitter_cfg.c **** 			{0x5Au, 0x04u},
 350:.\Generated_Source\PSoC4/cyfitter_cfg.c **** 			{0x5Bu, 0x04u},
 351:.\Generated_Source\PSoC4/cyfitter_cfg.c **** 			{0x5Du, 0x99u},
 352:.\Generated_Source\PSoC4/cyfitter_cfg.c **** 			{0x5Fu, 0x01u},
 353:.\Generated_Source\PSoC4/cyfitter_cfg.c **** 			{0x60u, 0x40u},
 354:.\Generated_Source\PSoC4/cyfitter_cfg.c **** 			{0x62u, 0x40u},
 355:.\Generated_Source\PSoC4/cyfitter_cfg.c **** 			{0x64u, 0x40u},
 356:.\Generated_Source\PSoC4/cyfitter_cfg.c **** 			{0x65u, 0x40u},
 357:.\Generated_Source\PSoC4/cyfitter_cfg.c **** 			{0x66u, 0x80u},
 358:.\Generated_Source\PSoC4/cyfitter_cfg.c **** 			{0x68u, 0x80u},
 359:.\Generated_Source\PSoC4/cyfitter_cfg.c **** 			{0x6Au, 0x80u},
 360:.\Generated_Source\PSoC4/cyfitter_cfg.c **** 			{0x6Cu, 0x80u},
 361:.\Generated_Source\PSoC4/cyfitter_cfg.c **** 			{0x6Eu, 0x80u},
 362:.\Generated_Source\PSoC4/cyfitter_cfg.c **** 			{0x06u, 0x02u},
 363:.\Generated_Source\PSoC4/cyfitter_cfg.c **** 			{0x17u, 0x80u},
 364:.\Generated_Source\PSoC4/cyfitter_cfg.c **** 			{0x1Eu, 0x80u},
 365:.\Generated_Source\PSoC4/cyfitter_cfg.c **** 			{0x46u, 0x82u},
 366:.\Generated_Source\PSoC4/cyfitter_cfg.c **** 			{0x4Du, 0x04u},
 367:.\Generated_Source\PSoC4/cyfitter_cfg.c **** 			{0x4Fu, 0x01u},
 368:.\Generated_Source\PSoC4/cyfitter_cfg.c **** 			{0x56u, 0x02u},
 369:.\Generated_Source\PSoC4/cyfitter_cfg.c **** 			{0x5Du, 0x04u},
 370:.\Generated_Source\PSoC4/cyfitter_cfg.c **** 			{0x5Eu, 0x80u},
 371:.\Generated_Source\PSoC4/cyfitter_cfg.c **** 			{0x5Fu, 0x01u},
 372:.\Generated_Source\PSoC4/cyfitter_cfg.c **** 			{0x67u, 0x80u},
 373:.\Generated_Source\PSoC4/cyfitter_cfg.c **** 			{0x87u, 0x40u},
 374:.\Generated_Source\PSoC4/cyfitter_cfg.c **** 			{0x9Au, 0x80u},
 375:.\Generated_Source\PSoC4/cyfitter_cfg.c **** 			{0x9Bu, 0x80u},
 376:.\Generated_Source\PSoC4/cyfitter_cfg.c **** 			{0x9Eu, 0x02u},
 377:.\Generated_Source\PSoC4/cyfitter_cfg.c **** 			{0xC0u, 0x80u},
 378:.\Generated_Source\PSoC4/cyfitter_cfg.c **** 			{0xC4u, 0x80u},
 379:.\Generated_Source\PSoC4/cyfitter_cfg.c **** 			{0xD0u, 0x90u},
 380:.\Generated_Source\PSoC4/cyfitter_cfg.c **** 			{0xD6u, 0xD0u},
 381:.\Generated_Source\PSoC4/cyfitter_cfg.c **** 			{0xD8u, 0x80u},
 382:.\Generated_Source\PSoC4/cyfitter_cfg.c **** 			{0xE6u, 0x10u},
ARM GAS  C:\Users\egh35\AppData\Local\Temp\ccLUjRwa.s 			page 12


 383:.\Generated_Source\PSoC4/cyfitter_cfg.c **** 			{0x6Fu, 0x02u},
 384:.\Generated_Source\PSoC4/cyfitter_cfg.c **** 			{0xDAu, 0x80u},
 385:.\Generated_Source\PSoC4/cyfitter_cfg.c **** 			{0x62u, 0x04u},
 386:.\Generated_Source\PSoC4/cyfitter_cfg.c **** 			{0x87u, 0x02u},
 387:.\Generated_Source\PSoC4/cyfitter_cfg.c **** 			{0x8Eu, 0x04u},
 388:.\Generated_Source\PSoC4/cyfitter_cfg.c **** 			{0xA7u, 0x02u},
 389:.\Generated_Source\PSoC4/cyfitter_cfg.c **** 			{0xD8u, 0x40u},
 390:.\Generated_Source\PSoC4/cyfitter_cfg.c **** 			{0xE2u, 0x10u},
 391:.\Generated_Source\PSoC4/cyfitter_cfg.c **** 			{0x18u, 0x80u},
 392:.\Generated_Source\PSoC4/cyfitter_cfg.c **** 			{0x8Cu, 0x40u},
 393:.\Generated_Source\PSoC4/cyfitter_cfg.c **** 			{0xC6u, 0x08u},
 394:.\Generated_Source\PSoC4/cyfitter_cfg.c **** 			{0xE6u, 0x08u},
 395:.\Generated_Source\PSoC4/cyfitter_cfg.c **** 			{0x02u, 0x01u},
 396:.\Generated_Source\PSoC4/cyfitter_cfg.c **** 			{0x11u, 0x01u},
 397:.\Generated_Source\PSoC4/cyfitter_cfg.c **** 		};
 398:.\Generated_Source\PSoC4/cyfitter_cfg.c **** 
 399:.\Generated_Source\PSoC4/cyfitter_cfg.c **** 
 400:.\Generated_Source\PSoC4/cyfitter_cfg.c **** 
 401:.\Generated_Source\PSoC4/cyfitter_cfg.c **** 		CYPACKED typedef struct {
 402:.\Generated_Source\PSoC4/cyfitter_cfg.c **** 			void CYFAR *address;
 403:.\Generated_Source\PSoC4/cyfitter_cfg.c **** 			uint16 size;
 404:.\Generated_Source\PSoC4/cyfitter_cfg.c **** 		} CYPACKED_ATTR cfg_memset_t;
 405:.\Generated_Source\PSoC4/cyfitter_cfg.c **** 
 406:.\Generated_Source\PSoC4/cyfitter_cfg.c **** 		static const cfg_memset_t CYCODE cfg_memset_list [] = {
 407:.\Generated_Source\PSoC4/cyfitter_cfg.c **** 			/* address, size */
 408:.\Generated_Source\PSoC4/cyfitter_cfg.c **** 			{(void CYFAR *)(CYDEV_UDB_P0_U0_BASE), 1024u},
 409:.\Generated_Source\PSoC4/cyfitter_cfg.c **** 			{(void CYFAR *)(CYDEV_UDB_DSI0_BASE), 1024u},
 410:.\Generated_Source\PSoC4/cyfitter_cfg.c **** 		};
 411:.\Generated_Source\PSoC4/cyfitter_cfg.c **** 
 412:.\Generated_Source\PSoC4/cyfitter_cfg.c **** 		uint8 CYDATA i;
 413:.\Generated_Source\PSoC4/cyfitter_cfg.c **** 
 414:.\Generated_Source\PSoC4/cyfitter_cfg.c **** 		/* Zero out critical memory blocks before beginning configuration */
 415:.\Generated_Source\PSoC4/cyfitter_cfg.c **** 		for (i = 0u; i < (sizeof(cfg_memset_list)/sizeof(cfg_memset_list[0])); i++)
 237              		.loc 1 415 0
 238 0092 0024     		mov	r4, #0
 239              	.LBB5:
 416:.\Generated_Source\PSoC4/cyfitter_cfg.c **** 		{
 417:.\Generated_Source\PSoC4/cyfitter_cfg.c **** 			const cfg_memset_t CYCODE * CYDATA ms = &cfg_memset_list[i];
 240              		.loc 1 417 0
 241 0094 2D4D     		ldr	r5, .L13+4
 242              	.LBE5:
 415:.\Generated_Source\PSoC4/cyfitter_cfg.c **** 		for (i = 0u; i < (sizeof(cfg_memset_list)/sizeof(cfg_memset_list[0])); i++)
 243              		.loc 1 415 0
 244 0096 0CE0     		b	.L11
 245              	.LVL18:
 246              	.L12:
 247              	.LBB6:
 248              		.loc 1 417 0 discriminator 2
 249 0098 6300     		lsl	r3, r4, #1
 250 009a 1B19     		add	r3, r3, r4
 251 009c 5B00     		lsl	r3, r3, #1
 252 009e EB18     		add	r3, r5, r3
 253              	.LVL19:
 418:.\Generated_Source\PSoC4/cyfitter_cfg.c **** 			CYMEMZERO(ms->address, (size_t)(uint32)(ms->size));
 254              		.loc 1 418 0 discriminator 2
 255 00a0 9988     		ldrh	r1, [r3, #4]
 256 00a2 1A88     		ldrh	r2, [r3]
ARM GAS  C:\Users\egh35\AppData\Local\Temp\ccLUjRwa.s 			page 13


 257 00a4 5888     		ldrh	r0, [r3, #2]
 258 00a6 0004     		lsl	r0, r0, #16
 259 00a8 1043     		orr	r0, r2
 260 00aa FFF7FEFF 		bl	CYMEMZERO
 261              	.LVL20:
 262              	.LBE6:
 415:.\Generated_Source\PSoC4/cyfitter_cfg.c **** 		for (i = 0u; i < (sizeof(cfg_memset_list)/sizeof(cfg_memset_list[0])); i++)
 263              		.loc 1 415 0 discriminator 2
 264 00ae 0134     		add	r4, r4, #1
 265              	.LVL21:
 266 00b0 E4B2     		uxtb	r4, r4
 267              	.LVL22:
 268              	.L11:
 415:.\Generated_Source\PSoC4/cyfitter_cfg.c **** 		for (i = 0u; i < (sizeof(cfg_memset_list)/sizeof(cfg_memset_list[0])); i++)
 269              		.loc 1 415 0 is_stmt 0 discriminator 1
 270 00b2 012C     		cmp	r4, #1
 271 00b4 F0D9     		bls	.L12
 419:.\Generated_Source\PSoC4/cyfitter_cfg.c **** 		}
 420:.\Generated_Source\PSoC4/cyfitter_cfg.c **** 
 421:.\Generated_Source\PSoC4/cyfitter_cfg.c **** 		cfg_write_bytes32(cy_cfg_addr_table, cy_cfg_data_table);
 272              		.loc 1 421 0 is_stmt 1
 273 00b6 2549     		ldr	r1, .L13+4
 274 00b8 081C     		mov	r0, r1
 275 00ba 0C30     		add	r0, r0, #12
 276 00bc 3031     		add	r1, r1, #48
 277 00be FFF7FEFF 		bl	cfg_write_bytes32
 278              	.LVL23:
 422:.\Generated_Source\PSoC4/cyfitter_cfg.c **** 
 423:.\Generated_Source\PSoC4/cyfitter_cfg.c **** 		/* HSIOM Starting address: CYDEV_HSIOM_BASE */
 424:.\Generated_Source\PSoC4/cyfitter_cfg.c **** 		CY_SET_XTND_REG32((void CYFAR *)(CYDEV_HSIOM_BASE), 0x00990000u);
 279              		.loc 1 424 0
 280 00c2 9923     		mov	r3, #153
 281 00c4 1B04     		lsl	r3, r3, #16
 282 00c6 224A     		ldr	r2, .L13+8
 283 00c8 1360     		str	r3, [r2]
 425:.\Generated_Source\PSoC4/cyfitter_cfg.c **** 		CY_SET_XTND_REG32((void CYFAR *)(CYREG_HSIOM_PORT_SEL1), 0x03000000u);
 284              		.loc 1 425 0
 285 00ca C021     		mov	r1, #192
 286 00cc 8904     		lsl	r1, r1, #18
 287 00ce 214A     		ldr	r2, .L13+12
 288 00d0 1160     		str	r1, [r2]
 426:.\Generated_Source\PSoC4/cyfitter_cfg.c **** 		CY_SET_XTND_REG32((void CYFAR *)(CYREG_HSIOM_PORT_SEL3), 0x0000EE00u);
 289              		.loc 1 426 0
 290 00d2 EE21     		mov	r1, #238
 291 00d4 0902     		lsl	r1, r1, #8
 292 00d6 204A     		ldr	r2, .L13+16
 293 00d8 1160     		str	r1, [r2]
 427:.\Generated_Source\PSoC4/cyfitter_cfg.c **** 
 428:.\Generated_Source\PSoC4/cyfitter_cfg.c **** 		/* UDB_PA_0 Starting address: CYDEV_UDB_PA0_BASE */
 429:.\Generated_Source\PSoC4/cyfitter_cfg.c **** 		CY_SET_XTND_REG32((void CYFAR *)(CYDEV_UDB_PA0_BASE), 0x00990000u);
 294              		.loc 1 429 0
 295 00da 204A     		ldr	r2, .L13+20
 296 00dc 1360     		str	r3, [r2]
 430:.\Generated_Source\PSoC4/cyfitter_cfg.c **** 
 431:.\Generated_Source\PSoC4/cyfitter_cfg.c **** 		/* UDB_PA_1 Starting address: CYDEV_UDB_PA1_BASE */
 432:.\Generated_Source\PSoC4/cyfitter_cfg.c **** 		CY_SET_XTND_REG32((void CYFAR *)(CYDEV_UDB_PA1_BASE), 0x00990000u);
 297              		.loc 1 432 0
ARM GAS  C:\Users\egh35\AppData\Local\Temp\ccLUjRwa.s 			page 14


 298 00de 204A     		ldr	r2, .L13+24
 299 00e0 1360     		str	r3, [r2]
 433:.\Generated_Source\PSoC4/cyfitter_cfg.c **** 		CY_SET_XTND_REG32((void CYFAR *)(CYREG_UDB_PA1_CFG8), 0x20000000u);
 300              		.loc 1 433 0
 301 00e2 8021     		mov	r1, #128
 302 00e4 8905     		lsl	r1, r1, #22
 303 00e6 1F4A     		ldr	r2, .L13+28
 304 00e8 1160     		str	r1, [r2]
 434:.\Generated_Source\PSoC4/cyfitter_cfg.c **** 
 435:.\Generated_Source\PSoC4/cyfitter_cfg.c **** 		/* UDB_PA_3 Starting address: CYDEV_UDB_PA3_BASE */
 436:.\Generated_Source\PSoC4/cyfitter_cfg.c **** 		CY_SET_XTND_REG32((void CYFAR *)(CYDEV_UDB_PA3_BASE), 0x00990000u);
 305              		.loc 1 436 0
 306 00ea 1F4A     		ldr	r2, .L13+32
 307 00ec 1360     		str	r3, [r2]
 437:.\Generated_Source\PSoC4/cyfitter_cfg.c **** 
 438:.\Generated_Source\PSoC4/cyfitter_cfg.c **** 		/* INT_SELECT Starting address: CYDEV_CPUSS_INTR_SELECT */
 439:.\Generated_Source\PSoC4/cyfitter_cfg.c **** 		CY_SET_XTND_REG32((void CYFAR *)(CYREG_CPUSS_INTR_SELECT), 0x00000001u);
 308              		.loc 1 439 0
 309 00ee 0122     		mov	r2, #1
 310 00f0 1E4B     		ldr	r3, .L13+36
 311 00f2 1A60     		str	r2, [r3]
 440:.\Generated_Source\PSoC4/cyfitter_cfg.c **** 
 441:.\Generated_Source\PSoC4/cyfitter_cfg.c **** 		/* INT_CONFIG Starting address: CYDEV_UDB_INT_CFG */
 442:.\Generated_Source\PSoC4/cyfitter_cfg.c **** 		CY_SET_XTND_REG32((void CYFAR *)(CYREG_UDB_INT_CFG), 0x00000002u);
 312              		.loc 1 442 0
 313 00f4 0222     		mov	r2, #2
 314 00f6 1E4B     		ldr	r3, .L13+40
 315 00f8 1A60     		str	r2, [r3]
 443:.\Generated_Source\PSoC4/cyfitter_cfg.c **** 
 444:.\Generated_Source\PSoC4/cyfitter_cfg.c **** 		/* Enable digital routing */
 445:.\Generated_Source\PSoC4/cyfitter_cfg.c **** 		CY_SET_XTND_REG8((void *)CYREG_UDB_UDBIF_BANK_CTL, CY_GET_XTND_REG8((void *)CYREG_UDB_UDBIF_BANK_
 316              		.loc 1 445 0
 317 00fa 1E4B     		ldr	r3, .L13+44
 318 00fc 1978     		ldrb	r1, [r3]
 319 00fe 0A43     		orr	r2, r1
 320 0100 1A70     		strb	r2, [r3]
 446:.\Generated_Source\PSoC4/cyfitter_cfg.c **** 
 447:.\Generated_Source\PSoC4/cyfitter_cfg.c **** 		/* Enable UDB array */
 448:.\Generated_Source\PSoC4/cyfitter_cfg.c **** 		CY_SET_XTND_REG8((void *)CYREG_UDB_UDBIF_WAIT_CFG, (uint8)((CY_GET_XTND_REG8((void *)CYREG_UDB_UD
 321              		.loc 1 448 0
 322 0102 1D4A     		ldr	r2, .L13+48
 323 0104 1178     		ldrb	r1, [r2]
 324 0106 3C20     		mov	r0, #60
 325 0108 8143     		bic	r1, r0
 326 010a 1420     		mov	r0, #20
 327 010c 0143     		orr	r1, r0
 328 010e 1170     		strb	r1, [r2]
 449:.\Generated_Source\PSoC4/cyfitter_cfg.c **** 		CY_SET_XTND_REG8((void *)CYREG_UDB_UDBIF_BANK_CTL, (uint8)(CY_GET_XTND_REG8((void *)CYREG_UDB_UDB
 329              		.loc 1 449 0
 330 0110 1978     		ldrb	r1, [r3]
 331 0112 1622     		mov	r2, #22
 332 0114 0A43     		orr	r2, r1
 333 0116 1A70     		strb	r2, [r3]
 334              	.LBE4:
 450:.\Generated_Source\PSoC4/cyfitter_cfg.c **** 	}
 451:.\Generated_Source\PSoC4/cyfitter_cfg.c **** 
 452:.\Generated_Source\PSoC4/cyfitter_cfg.c **** 	/* Perform second pass device configuration. These items must be configured in specific order afte
ARM GAS  C:\Users\egh35\AppData\Local\Temp\ccLUjRwa.s 			page 15


 453:.\Generated_Source\PSoC4/cyfitter_cfg.c **** 	/* IOPINS0_0 Starting address: CYDEV_PRT0_DR */
 454:.\Generated_Source\PSoC4/cyfitter_cfg.c **** 	CY_SET_XTND_REG32((void CYFAR *)(CYREG_PRT0_DR), 0x00000020u);
 335              		.loc 1 454 0
 336 0118 2023     		mov	r3, #32
 337 011a 184A     		ldr	r2, .L13+52
 338 011c 1360     		str	r3, [r2]
 455:.\Generated_Source\PSoC4/cyfitter_cfg.c **** 	CY_SET_XTND_REG32((void CYFAR *)(CYREG_PRT0_PC), 0x00031000u);
 339              		.loc 1 455 0
 340 011e C421     		mov	r1, #196
 341 0120 8902     		lsl	r1, r1, #10
 342 0122 174A     		ldr	r2, .L13+56
 343 0124 1160     		str	r1, [r2]
 456:.\Generated_Source\PSoC4/cyfitter_cfg.c **** 	CY_SET_XTND_REG32((void CYFAR *)(CYREG_PRT0_PC2), 0x00000020u);
 344              		.loc 1 456 0
 345 0126 174A     		ldr	r2, .L13+60
 346 0128 1360     		str	r3, [r2]
 457:.\Generated_Source\PSoC4/cyfitter_cfg.c **** 
 458:.\Generated_Source\PSoC4/cyfitter_cfg.c **** 	/* IOPINS0_1 Starting address: CYDEV_PRT1_DR */
 459:.\Generated_Source\PSoC4/cyfitter_cfg.c **** 	CY_SET_XTND_REG32((void CYFAR *)(CYREG_PRT1_DR), 0x00000040u);
 347              		.loc 1 459 0
 348 012a 4022     		mov	r2, #64
 349 012c 164B     		ldr	r3, .L13+64
 350 012e 1A60     		str	r2, [r3]
 460:.\Generated_Source\PSoC4/cyfitter_cfg.c **** 	CY_SET_XTND_REG32((void CYFAR *)(CYREG_PRT1_PC), 0x00180000u);
 351              		.loc 1 460 0
 352 0130 C022     		mov	r2, #192
 353 0132 5203     		lsl	r2, r2, #13
 354 0134 154B     		ldr	r3, .L13+68
 355 0136 1A60     		str	r2, [r3]
 461:.\Generated_Source\PSoC4/cyfitter_cfg.c **** 
 462:.\Generated_Source\PSoC4/cyfitter_cfg.c **** 	/* IOPINS0_3 Starting address: CYDEV_PRT3_DR */
 463:.\Generated_Source\PSoC4/cyfitter_cfg.c **** 	CY_SET_XTND_REG32((void CYFAR *)(CYREG_PRT3_PC), 0x00000D80u);
 356              		.loc 1 463 0
 357 0138 D822     		mov	r2, #216
 358 013a 1201     		lsl	r2, r2, #4
 359 013c 144B     		ldr	r3, .L13+72
 360 013e 1A60     		str	r2, [r3]
 464:.\Generated_Source\PSoC4/cyfitter_cfg.c **** 
 465:.\Generated_Source\PSoC4/cyfitter_cfg.c **** 	/* Setup clocks based on selections from Clock DWR */
 466:.\Generated_Source\PSoC4/cyfitter_cfg.c **** 	ClockSetup();
 361              		.loc 1 466 0
 362 0140 FFF75EFF 		bl	ClockSetup
 363              	.LVL24:
 467:.\Generated_Source\PSoC4/cyfitter_cfg.c **** 
 468:.\Generated_Source\PSoC4/cyfitter_cfg.c **** 	/* Perform basic analog initialization to defaults */
 469:.\Generated_Source\PSoC4/cyfitter_cfg.c **** 	AnalogSetDefault();
 470:.\Generated_Source\PSoC4/cyfitter_cfg.c **** 
 471:.\Generated_Source\PSoC4/cyfitter_cfg.c **** }
 364              		.loc 1 471 0
 365              		@ sp needed
 366              	.LVL25:
 367 0144 38BD     		pop	{r3, r4, r5, pc}
 368              	.L14:
 369 0146 C046     		.align	2
 370              	.L13:
 371 0148 1C700F40 		.word	1074753564
 372 014c 00000000 		.word	.LANCHOR0
ARM GAS  C:\Users\egh35\AppData\Local\Temp\ccLUjRwa.s 			page 16


 373 0150 00000140 		.word	1073807360
 374 0154 04000140 		.word	1073807364
 375 0158 0C000140 		.word	1073807372
 376 015c 00500F40 		.word	1074745344
 377 0160 10500F40 		.word	1074745360
 378 0164 18500F40 		.word	1074745368
 379 0168 30500F40 		.word	1074745392
 380 016c 20000040 		.word	1073741856
 381 0170 00800F40 		.word	1074757632
 382 0174 00700F40 		.word	1074753536
 383 0178 01700F40 		.word	1074753537
 384 017c 00000440 		.word	1074003968
 385 0180 08000440 		.word	1074003976
 386 0184 18000440 		.word	1074003992
 387 0188 00010440 		.word	1074004224
 388 018c 08010440 		.word	1074004232
 389 0190 08030440 		.word	1074004744
 390              		.cfi_endproc
 391              	.LFE6:
 392              		.size	cyfitter_cfg, .-cyfitter_cfg
 393              		.section	.rodata
 394              		.align	2
 395              		.set	.LANCHOR0,. + 0
 396              		.type	cfg_memset_list.4740, %object
 397              		.size	cfg_memset_list.4740, 12
 398              	cfg_memset_list.4740:
 399 0000 00300F40 		.word	1074737152
 400 0004 0004     		.short	1024
 401 0006 00400F40 		.4byte	1074741248
 402 000a 0004     		.short	1024
 403              		.type	cy_cfg_addr_table.4734, %object
 404              		.size	cy_cfg_addr_table.4734, 36
 405              	cy_cfg_addr_table.4734:
 406 000c 01000F40 		.word	1074724865
 407 0010 28300F40 		.word	1074737192
 408 0014 08310F40 		.word	1074737416
 409 0018 1F320F40 		.word	1074737695
 410 001c 15330F40 		.word	1074737941
 411 0020 02400F40 		.word	1074741250
 412 0024 06410F40 		.word	1074741510
 413 0028 04430F40 		.word	1074742020
 414 002c 02600F40 		.word	1074749442
 415              		.type	cy_cfg_data_table.4735, %object
 416              		.size	cy_cfg_data_table.4735, 230
 417              	cy_cfg_data_table.4735:
 418 0030 82       		.byte	-126
 419 0031 0D       		.byte	13
 420 0032 40       		.byte	64
 421 0033 51       		.byte	81
 422 0034 49       		.byte	73
 423 0035 FF       		.byte	-1
 424 0036 4A       		.byte	74
 425 0037 FF       		.byte	-1
 426 0038 4B       		.byte	75
 427 0039 FF       		.byte	-1
 428 003a 4F       		.byte	79
 429 003b 01       		.byte	1
ARM GAS  C:\Users\egh35\AppData\Local\Temp\ccLUjRwa.s 			page 17


 430 003c 50       		.byte	80
 431 003d 18       		.byte	24
 432 003e 5A       		.byte	90
 433 003f 04       		.byte	4
 434 0040 5D       		.byte	93
 435 0041 09       		.byte	9
 436 0042 5F       		.byte	95
 437 0043 01       		.byte	1
 438 0044 60       		.byte	96
 439 0045 40       		.byte	64
 440 0046 62       		.byte	98
 441 0047 40       		.byte	64
 442 0048 64       		.byte	100
 443 0049 40       		.byte	64
 444 004a 65       		.byte	101
 445 004b 40       		.byte	64
 446 004c 66       		.byte	102
 447 004d 80       		.byte	-128
 448 004e 68       		.byte	104
 449 004f 80       		.byte	-128
 450 0050 6A       		.byte	106
 451 0051 80       		.byte	-128
 452 0052 6C       		.byte	108
 453 0053 80       		.byte	-128
 454 0054 6E       		.byte	110
 455 0055 80       		.byte	-128
 456 0056 C0       		.byte	-64
 457 0057 41       		.byte	65
 458 0058 C9       		.byte	-55
 459 0059 FF       		.byte	-1
 460 005a CA       		.byte	-54
 461 005b FF       		.byte	-1
 462 005c CB       		.byte	-53
 463 005d FF       		.byte	-1
 464 005e CD       		.byte	-51
 465 005f 83       		.byte	-125
 466 0060 CE       		.byte	-50
 467 0061 03       		.byte	3
 468 0062 CF       		.byte	-49
 469 0063 01       		.byte	1
 470 0064 D0       		.byte	-48
 471 0065 18       		.byte	24
 472 0066 D2       		.byte	-46
 473 0067 80       		.byte	-128
 474 0068 DA       		.byte	-38
 475 0069 04       		.byte	4
 476 006a DB       		.byte	-37
 477 006b 04       		.byte	4
 478 006c DD       		.byte	-35
 479 006d 99       		.byte	-103
 480 006e DF       		.byte	-33
 481 006f 01       		.byte	1
 482 0070 E0       		.byte	-32
 483 0071 40       		.byte	64
 484 0072 E2       		.byte	-30
 485 0073 40       		.byte	64
 486 0074 E4       		.byte	-28
ARM GAS  C:\Users\egh35\AppData\Local\Temp\ccLUjRwa.s 			page 18


 487 0075 40       		.byte	64
 488 0076 E5       		.byte	-27
 489 0077 40       		.byte	64
 490 0078 E6       		.byte	-26
 491 0079 80       		.byte	-128
 492 007a E8       		.byte	-24
 493 007b 80       		.byte	-128
 494 007c EA       		.byte	-22
 495 007d 80       		.byte	-128
 496 007e EC       		.byte	-20
 497 007f 80       		.byte	-128
 498 0080 EE       		.byte	-18
 499 0081 80       		.byte	-128
 500 0082 42       		.byte	66
 501 0083 02       		.byte	2
 502 0084 46       		.byte	70
 503 0085 82       		.byte	-126
 504 0086 48       		.byte	72
 505 0087 01       		.byte	1
 506 0088 74       		.byte	116
 507 0089 01       		.byte	1
 508 008a 76       		.byte	118
 509 008b 80       		.byte	-128
 510 008c 77       		.byte	119
 511 008d 80       		.byte	-128
 512 008e D0       		.byte	-48
 513 008f 98       		.byte	-104
 514 0090 D2       		.byte	-46
 515 0091 08       		.byte	8
 516 0092 0E       		.byte	14
 517 0093 01       		.byte	1
 518 0094 2E       		.byte	46
 519 0095 01       		.byte	1
 520 0096 30       		.byte	48
 521 0097 01       		.byte	1
 522 0098 3E       		.byte	62
 523 0099 01       		.byte	1
 524 009a 40       		.byte	64
 525 009b 41       		.byte	65
 526 009c 45       		.byte	69
 527 009d EC       		.byte	-20
 528 009e 47       		.byte	71
 529 009f 20       		.byte	32
 530 00a0 48       		.byte	72
 531 00a1 23       		.byte	35
 532 00a2 49       		.byte	73
 533 00a3 FF       		.byte	-1
 534 00a4 4A       		.byte	74
 535 00a5 FF       		.byte	-1
 536 00a6 4B       		.byte	75
 537 00a7 FF       		.byte	-1
 538 00a8 4D       		.byte	77
 539 00a9 83       		.byte	-125
 540 00aa 4E       		.byte	78
 541 00ab 03       		.byte	3
 542 00ac 4F       		.byte	79
 543 00ad 01       		.byte	1
ARM GAS  C:\Users\egh35\AppData\Local\Temp\ccLUjRwa.s 			page 19


 544 00ae 50       		.byte	80
 545 00af 18       		.byte	24
 546 00b0 54       		.byte	84
 547 00b1 01       		.byte	1
 548 00b2 56       		.byte	86
 549 00b3 04       		.byte	4
 550 00b4 58       		.byte	88
 551 00b5 04       		.byte	4
 552 00b6 5A       		.byte	90
 553 00b7 04       		.byte	4
 554 00b8 5B       		.byte	91
 555 00b9 04       		.byte	4
 556 00ba 5D       		.byte	93
 557 00bb 99       		.byte	-103
 558 00bc 5F       		.byte	95
 559 00bd 01       		.byte	1
 560 00be 60       		.byte	96
 561 00bf 40       		.byte	64
 562 00c0 62       		.byte	98
 563 00c1 40       		.byte	64
 564 00c2 64       		.byte	100
 565 00c3 40       		.byte	64
 566 00c4 65       		.byte	101
 567 00c5 40       		.byte	64
 568 00c6 66       		.byte	102
 569 00c7 80       		.byte	-128
 570 00c8 68       		.byte	104
 571 00c9 80       		.byte	-128
 572 00ca 6A       		.byte	106
 573 00cb 80       		.byte	-128
 574 00cc 6C       		.byte	108
 575 00cd 80       		.byte	-128
 576 00ce 6E       		.byte	110
 577 00cf 80       		.byte	-128
 578 00d0 06       		.byte	6
 579 00d1 02       		.byte	2
 580 00d2 17       		.byte	23
 581 00d3 80       		.byte	-128
 582 00d4 1E       		.byte	30
 583 00d5 80       		.byte	-128
 584 00d6 46       		.byte	70
 585 00d7 82       		.byte	-126
 586 00d8 4D       		.byte	77
 587 00d9 04       		.byte	4
 588 00da 4F       		.byte	79
 589 00db 01       		.byte	1
 590 00dc 56       		.byte	86
 591 00dd 02       		.byte	2
 592 00de 5D       		.byte	93
 593 00df 04       		.byte	4
 594 00e0 5E       		.byte	94
 595 00e1 80       		.byte	-128
 596 00e2 5F       		.byte	95
 597 00e3 01       		.byte	1
 598 00e4 67       		.byte	103
 599 00e5 80       		.byte	-128
 600 00e6 87       		.byte	-121
ARM GAS  C:\Users\egh35\AppData\Local\Temp\ccLUjRwa.s 			page 20


 601 00e7 40       		.byte	64
 602 00e8 9A       		.byte	-102
 603 00e9 80       		.byte	-128
 604 00ea 9B       		.byte	-101
 605 00eb 80       		.byte	-128
 606 00ec 9E       		.byte	-98
 607 00ed 02       		.byte	2
 608 00ee C0       		.byte	-64
 609 00ef 80       		.byte	-128
 610 00f0 C4       		.byte	-60
 611 00f1 80       		.byte	-128
 612 00f2 D0       		.byte	-48
 613 00f3 90       		.byte	-112
 614 00f4 D6       		.byte	-42
 615 00f5 D0       		.byte	-48
 616 00f6 D8       		.byte	-40
 617 00f7 80       		.byte	-128
 618 00f8 E6       		.byte	-26
 619 00f9 10       		.byte	16
 620 00fa 6F       		.byte	111
 621 00fb 02       		.byte	2
 622 00fc DA       		.byte	-38
 623 00fd 80       		.byte	-128
 624 00fe 62       		.byte	98
 625 00ff 04       		.byte	4
 626 0100 87       		.byte	-121
 627 0101 02       		.byte	2
 628 0102 8E       		.byte	-114
 629 0103 04       		.byte	4
 630 0104 A7       		.byte	-89
 631 0105 02       		.byte	2
 632 0106 D8       		.byte	-40
 633 0107 40       		.byte	64
 634 0108 E2       		.byte	-30
 635 0109 10       		.byte	16
 636 010a 18       		.byte	24
 637 010b 80       		.byte	-128
 638 010c 8C       		.byte	-116
 639 010d 40       		.byte	64
 640 010e C6       		.byte	-58
 641 010f 08       		.byte	8
 642 0110 E6       		.byte	-26
 643 0111 08       		.byte	8
 644 0112 02       		.byte	2
 645 0113 01       		.byte	1
 646 0114 11       		.byte	17
 647 0115 01       		.byte	1
 648 0116 0000     		.text
 649              	.Letext0:
 650              		.file 2 "c:\\program files (x86)\\cypress\\psoc creator\\3.2\\psoc creator\\import\\gnu\\arm\\4.8.
 651              		.file 3 ".\\Generated_Source\\PSoC4\\cytypes.h"
 652              		.file 4 ".\\Generated_Source\\PSoC4\\CyLib.h"