ARM GAS  C:\Users\egh35\AppData\Local\Temp\cc9eZrGe.s 			page 1


   1              		.cpu cortex-m0
   2              		.fpu softvfp
   3              		.eabi_attribute 20, 1
   4              		.eabi_attribute 21, 1
   5              		.eabi_attribute 23, 3
   6              		.eabi_attribute 24, 1
   7              		.eabi_attribute 25, 1
   8              		.eabi_attribute 26, 1
   9              		.eabi_attribute 30, 1
  10              		.eabi_attribute 34, 0
  11              		.eabi_attribute 18, 4
  12              		.code	16
  13              		.file	"main.c"
  14              		.text
  15              	.Ltext0:
  16              		.cfi_sections	.debug_frame
  17              		.section	.text.PrintInt,"ax",%progbits
  18              		.align	2
  19              		.global	PrintInt
  20              		.code	16
  21              		.thumb_func
  22              		.type	PrintInt, %function
  23              	PrintInt:
  24              	.LFB33:
  25              		.file 1 ".\\main.c"
   1:.\main.c      **** /* ========================================
   2:.\main.c      ****  *
   3:.\main.c      ****  * Copyright YOUR COMPANY, THE YEAR
   4:.\main.c      ****  * All Rights Reserved
   5:.\main.c      ****  * UNPUBLISHED, LICENSED SOFTWARE.
   6:.\main.c      ****  *
   7:.\main.c      ****  * CONFIDENTIAL AND PROPRIETARY INFORMATION
   8:.\main.c      ****  * WHICH IS THE PROPERTY OF your company.
   9:.\main.c      ****  *
  10:.\main.c      ****  * ========================================
  11:.\main.c      **** */
  12:.\main.c      **** #include <project.h>
  13:.\main.c      **** #include <stdbool.h>
  14:.\main.c      **** 
  15:.\main.c      **** uint16 PWMCompare = 0;
  16:.\main.c      **** bool updown = false;
  17:.\main.c      **** 
  18:.\main.c      **** 
  19:.\main.c      **** void PrintInt(int b){
  26              		.loc 1 19 0
  27              		.cfi_startproc
  28              	.LVL0:
  29 0000 00B5     		push	{lr}
  30              		.cfi_def_cfa_offset 4
  31              		.cfi_offset 14, -4
  32 0002 85B0     		sub	sp, sp, #20
  33              		.cfi_def_cfa_offset 24
  34 0004 021C     		mov	r2, r0
  20:.\main.c      ****     char buf[10];
  21:.\main.c      ****     sprintf(buf, "%d", b); 
  35              		.loc 1 21 0
  36 0006 01A8     		add	r0, sp, #4
ARM GAS  C:\Users\egh35\AppData\Local\Temp\cc9eZrGe.s 			page 2


  37              	.LVL1:
  38 0008 0349     		ldr	r1, .L2
  39 000a FFF7FEFF 		bl	sprintf
  40              	.LVL2:
  22:.\main.c      ****     UART_1_UartPutString(buf);
  41              		.loc 1 22 0
  42 000e 01A8     		add	r0, sp, #4
  43 0010 FFF7FEFF 		bl	UART_1_UartPutString
  44              	.LVL3:
  23:.\main.c      **** 
  24:.\main.c      **** }
  45              		.loc 1 24 0
  46 0014 05B0     		add	sp, sp, #20
  47              		@ sp needed
  48 0016 00BD     		pop	{pc}
  49              	.L3:
  50              		.align	2
  51              	.L2:
  52 0018 00000000 		.word	.LC0
  53              		.cfi_endproc
  54              	.LFE33:
  55              		.size	PrintInt, .-PrintInt
  56              		.section	.text.TimerISR,"ax",%progbits
  57              		.align	2
  58              		.global	TimerISR
  59              		.code	16
  60              		.thumb_func
  61              		.type	TimerISR, %function
  62              	TimerISR:
  63              	.LFB34:
  25:.\main.c      **** 
  26:.\main.c      **** CY_ISR(TimerISR){
  64              		.loc 1 26 0
  65              		.cfi_startproc
  66 0000 08B5     		push	{r3, lr}
  67              		.cfi_def_cfa_offset 8
  68              		.cfi_offset 3, -8
  69              		.cfi_offset 14, -4
  27:.\main.c      ****             
  28:.\main.c      ****        if(updown == false)
  70              		.loc 1 28 0
  71 0002 154B     		ldr	r3, .L9
  72 0004 1B78     		ldrb	r3, [r3]
  73 0006 002B     		cmp	r3, #0
  74 0008 03D1     		bne	.L5
  29:.\main.c      ****          {
  30:.\main.c      ****             PWMCompare+=1; 
  75              		.loc 1 30 0
  76 000a 134A     		ldr	r2, .L9
  77 000c 5188     		ldrh	r1, [r2, #2]
  78 000e 0131     		add	r1, r1, #1
  79 0010 5180     		strh	r1, [r2, #2]
  80              	.L5:
  31:.\main.c      ****         }
  32:.\main.c      ****        if(updown == true){
  81              		.loc 1 32 0
  82 0012 002B     		cmp	r3, #0
ARM GAS  C:\Users\egh35\AppData\Local\Temp\cc9eZrGe.s 			page 3


  83 0014 03D0     		beq	.L6
  33:.\main.c      ****         PWMCompare-= 1; 
  84              		.loc 1 33 0
  85 0016 104B     		ldr	r3, .L9
  86 0018 5A88     		ldrh	r2, [r3, #2]
  87 001a 013A     		sub	r2, r2, #1
  88 001c 5A80     		strh	r2, [r3, #2]
  89              	.L6:
  34:.\main.c      ****     }
  35:.\main.c      ****     
  36:.\main.c      ****     if(PWMCompare >= 1000){
  90              		.loc 1 36 0
  91 001e 0E4B     		ldr	r3, .L9
  92 0020 5888     		ldrh	r0, [r3, #2]
  93 0022 0E4B     		ldr	r3, .L9+4
  94 0024 9842     		cmp	r0, r3
  95 0026 02D9     		bls	.L7
  37:.\main.c      ****         updown = true;
  96              		.loc 1 37 0
  97 0028 0122     		mov	r2, #1
  98 002a 0B4B     		ldr	r3, .L9
  99 002c 1A70     		strb	r2, [r3]
 100              	.L7:
  38:.\main.c      ****     }
  39:.\main.c      ****     if(PWMCompare <= 0){
 101              		.loc 1 39 0
 102 002e 0028     		cmp	r0, #0
 103 0030 02D1     		bne	.L8
  40:.\main.c      ****         updown = false;
 104              		.loc 1 40 0
 105 0032 0022     		mov	r2, #0
 106 0034 084B     		ldr	r3, .L9
 107 0036 1A70     		strb	r2, [r3]
 108              	.L8:
  41:.\main.c      ****     }
  42:.\main.c      ****     
  43:.\main.c      ****         PWM_1_WriteCompare(PWMCompare);
 109              		.loc 1 43 0
 110 0038 FFF7FEFF 		bl	PWM_1_WriteCompare
 111              	.LVL4:
  44:.\main.c      ****         CyDelay(1);
 112              		.loc 1 44 0
 113 003c 0120     		mov	r0, #1
 114 003e FFF7FEFF 		bl	CyDelay
 115              	.LVL5:
  45:.\main.c      ****         
  46:.\main.c      ****     PrintInt(PWMCompare);    
 116              		.loc 1 46 0
 117 0042 054B     		ldr	r3, .L9
 118 0044 5888     		ldrh	r0, [r3, #2]
 119 0046 FFF7FEFF 		bl	PrintInt
 120              	.LVL6:
  47:.\main.c      ****     UART_1_UartPutString(" \n \r");
 121              		.loc 1 47 0
 122 004a 0548     		ldr	r0, .L9+8
 123 004c FFF7FEFF 		bl	UART_1_UartPutString
 124              	.LVL7:
ARM GAS  C:\Users\egh35\AppData\Local\Temp\cc9eZrGe.s 			page 4


  48:.\main.c      ****     Timer_1_ReadStatusRegister();
 125              		.loc 1 48 0
 126 0050 FFF7FEFF 		bl	Timer_1_ReadStatusRegister
 127              	.LVL8:
  49:.\main.c      ****         
  50:.\main.c      ****     
  51:.\main.c      **** }
 128              		.loc 1 51 0
 129              		@ sp needed
 130 0054 08BD     		pop	{r3, pc}
 131              	.L10:
 132 0056 C046     		.align	2
 133              	.L9:
 134 0058 00000000 		.word	.LANCHOR0
 135 005c E7030000 		.word	999
 136 0060 04000000 		.word	.LC3
 137              		.cfi_endproc
 138              	.LFE34:
 139              		.size	TimerISR, .-TimerISR
 140              		.section	.text.main,"ax",%progbits
 141              		.align	2
 142              		.global	main
 143              		.code	16
 144              		.thumb_func
 145              		.type	main, %function
 146              	main:
 147              	.LFB35:
  52:.\main.c      **** 
  53:.\main.c      **** 
  54:.\main.c      **** 
  55:.\main.c      **** 
  56:.\main.c      **** int main()
  57:.\main.c      **** {
 148              		.loc 1 57 0
 149              		.cfi_startproc
 150 0000 08B5     		push	{r3, lr}
 151              		.cfi_def_cfa_offset 8
 152              		.cfi_offset 3, -8
 153              		.cfi_offset 14, -4
  58:.\main.c      ****     PWM_1_Start();
 154              		.loc 1 58 0
 155 0002 FFF7FEFF 		bl	PWM_1_Start
 156              	.LVL9:
  59:.\main.c      ****     Timer_1_Start();
 157              		.loc 1 59 0
 158 0006 FFF7FEFF 		bl	Timer_1_Start
 159              	.LVL10:
  60:.\main.c      ****     UART_1_Start();
 160              		.loc 1 60 0
 161 000a FFF7FEFF 		bl	UART_1_Start
 162              	.LVL11:
  61:.\main.c      ****     CyGlobalIntDisable;
 163              		.loc 1 61 0
 164              	@ 61 ".\main.c" 1
 165 000e 72B6     		CPSID   i
 166              	@ 0 "" 2
  62:.\main.c      ****     isr_1_StartEx(TimerISR);
ARM GAS  C:\Users\egh35\AppData\Local\Temp\cc9eZrGe.s 			page 5


 167              		.loc 1 62 0
 168              		.code	16
 169 0010 0248     		ldr	r0, .L13
 170 0012 FFF7FEFF 		bl	isr_1_StartEx
 171              	.LVL12:
  63:.\main.c      ****     
  64:.\main.c      ****     CyGlobalIntEnable;
 172              		.loc 1 64 0
 173              	@ 64 ".\main.c" 1
 174 0016 62B6     		CPSIE   i
 175              	@ 0 "" 2
 176              		.code	16
 177              	.L12:
 178 0018 FEE7     		b	.L12
 179              	.L14:
 180 001a C046     		.align	2
 181              	.L13:
 182 001c 00000000 		.word	TimerISR
 183              		.cfi_endproc
 184              	.LFE35:
 185              		.size	main, .-main
 186              		.global	updown
 187              		.global	PWMCompare
 188              		.section	.rodata.str1.4,"aMS",%progbits,1
 189              		.align	2
 190              	.LC0:
 191 0000 256400   		.ascii	"%d\000"
 192 0003 00       		.space	1
 193              	.LC3:
 194 0004 200A200D 		.ascii	" \012 \015\000"
 194      00
 195 0009 000000   		.bss
 196              		.align	1
 197              		.set	.LANCHOR0,. + 0
 198              		.type	updown, %object
 199              		.size	updown, 1
 200              	updown:
 201 0000 00       		.space	1
 202 0001 00       		.space	1
 203              		.type	PWMCompare, %object
 204              		.size	PWMCompare, 2
 205              	PWMCompare:
 206 0002 0000     		.space	2
 207              		.text
 208              	.Letext0:
 209              		.file 2 "Generated_Source\\PSoC4/cytypes.h"
 210              		.file 3 "<built-in>"
 211              		.file 4 "Generated_Source\\PSoC4/UART_1_SPI_UART.h"
 212              		.file 5 "Generated_Source\\PSoC4/PWM_1.h"
 213              		.file 6 "Generated_Source\\PSoC4/CyLib.h"
 214              		.file 7 "Generated_Source\\PSoC4/Timer_1.h"
 215              		.file 8 "Generated_Source\\PSoC4/UART_1.h"
 216              		.file 9 "Generated_Source\\PSoC4/isr_1.h"