ARM GAS  C:\Users\egh35\AppData\Local\Temp\ccdjDdgj.s 			page 1


   1              		.cpu cortex-m0
   2              		.fpu softvfp
   3              		.eabi_attribute 20, 1
   4              		.eabi_attribute 21, 1
   5              		.eabi_attribute 23, 3
   6              		.eabi_attribute 24, 1
   7              		.eabi_attribute 25, 1
   8              		.eabi_attribute 26, 1
   9              		.eabi_attribute 30, 1
  10              		.eabi_attribute 34, 0
  11              		.eabi_attribute 18, 4
  12              		.code	16
  13              		.file	"main.c"
  14              		.text
  15              	.Ltext0:
  16              		.cfi_sections	.debug_frame
  17              		.section	.text.TimerISR,"ax",%progbits
  18              		.align	2
  19              		.global	TimerISR
  20              		.code	16
  21              		.thumb_func
  22              		.type	TimerISR, %function
  23              	TimerISR:
  24              	.LFB33:
  25              		.file 1 ".\\main.c"
   1:.\main.c      **** /* ========================================
   2:.\main.c      ****  *
   3:.\main.c      ****  * Copyright YOUR COMPANY, THE YEAR
   4:.\main.c      ****  * All Rights Reserved
   5:.\main.c      ****  * UNPUBLISHED, LICENSED SOFTWARE.
   6:.\main.c      ****  *
   7:.\main.c      ****  * CONFIDENTIAL AND PROPRIETARY INFORMATION
   8:.\main.c      ****  * WHICH IS THE PROPERTY OF your company.
   9:.\main.c      ****  *
  10:.\main.c      ****  * ========================================
  11:.\main.c      **** */
  12:.\main.c      **** #include <project.h>
  13:.\main.c      **** 
  14:.\main.c      **** CY_ISR(TimerISR){
  26              		.loc 1 14 0
  27              		.cfi_startproc
  28 0000 08B5     		push	{r3, lr}
  29              		.cfi_def_cfa_offset 8
  30              		.cfi_offset 3, -8
  31              		.cfi_offset 14, -4
  15:.\main.c      ****     LED_PIN_Write(!LED_PIN_Read());
  32              		.loc 1 15 0
  33 0002 FFF7FEFF 		bl	LED_PIN_Read
  34              	.LVL0:
  35 0006 4342     		neg	r3, r0
  36 0008 5841     		adc	r0, r0, r3
  37 000a C0B2     		uxtb	r0, r0
  38 000c FFF7FEFF 		bl	LED_PIN_Write
  39              	.LVL1:
  16:.\main.c      ****     UART_1_UartPutString("Hi");
  40              		.loc 1 16 0
  41 0010 0348     		ldr	r0, .L2
ARM GAS  C:\Users\egh35\AppData\Local\Temp\ccdjDdgj.s 			page 2


  42 0012 FFF7FEFF 		bl	UART_1_UartPutString
  43              	.LVL2:
  17:.\main.c      ****     Timer_1_ReadStatusRegister();
  44              		.loc 1 17 0
  45 0016 FFF7FEFF 		bl	Timer_1_ReadStatusRegister
  46              	.LVL3:
  18:.\main.c      ****     Timer_1_Stop();      
  47              		.loc 1 18 0
  48 001a FFF7FEFF 		bl	Timer_1_Stop
  49              	.LVL4:
  19:.\main.c      **** 
  20:.\main.c      ****     
  21:.\main.c      **** }
  50              		.loc 1 21 0
  51              		@ sp needed
  52 001e 08BD     		pop	{r3, pc}
  53              	.L3:
  54              		.align	2
  55              	.L2:
  56 0020 00000000 		.word	.LC0
  57              		.cfi_endproc
  58              	.LFE33:
  59              		.size	TimerISR, .-TimerISR
  60              		.section	.text.SW_Int,"ax",%progbits
  61              		.align	2
  62              		.global	SW_Int
  63              		.code	16
  64              		.thumb_func
  65              		.type	SW_Int, %function
  66              	SW_Int:
  67              	.LFB34:
  22:.\main.c      **** 
  23:.\main.c      **** 
  24:.\main.c      **** 
  25:.\main.c      **** 
  26:.\main.c      **** CY_ISR(SW_Int){
  68              		.loc 1 26 0
  69              		.cfi_startproc
  70 0000 08B5     		push	{r3, lr}
  71              		.cfi_def_cfa_offset 8
  72              		.cfi_offset 3, -8
  73              		.cfi_offset 14, -4
  27:.\main.c      ****     LED_PIN_Write(!LED_PIN_Read());
  74              		.loc 1 27 0
  75 0002 FFF7FEFF 		bl	LED_PIN_Read
  76              	.LVL5:
  77 0006 4342     		neg	r3, r0
  78 0008 5841     		adc	r0, r0, r3
  79 000a C0B2     		uxtb	r0, r0
  80 000c FFF7FEFF 		bl	LED_PIN_Write
  81              	.LVL6:
  28:.\main.c      ****     UART_1_UartPutString("press");
  82              		.loc 1 28 0
  83 0010 0348     		ldr	r0, .L5
  84 0012 FFF7FEFF 		bl	UART_1_UartPutString
  85              	.LVL7:
  29:.\main.c      ****     Timer_1_Start();
ARM GAS  C:\Users\egh35\AppData\Local\Temp\ccdjDdgj.s 			page 3


  86              		.loc 1 29 0
  87 0016 FFF7FEFF 		bl	Timer_1_Start
  88              	.LVL8:
  30:.\main.c      ****     SW_ClearInterrupt();
  89              		.loc 1 30 0
  90 001a FFF7FEFF 		bl	SW_ClearInterrupt
  91              	.LVL9:
  31:.\main.c      ****     
  32:.\main.c      ****     }
  92              		.loc 1 32 0
  93              		@ sp needed
  94 001e 08BD     		pop	{r3, pc}
  95              	.L6:
  96              		.align	2
  97              	.L5:
  98 0020 04000000 		.word	.LC2
  99              		.cfi_endproc
 100              	.LFE34:
 101              		.size	SW_Int, .-SW_Int
 102              		.section	.text.main,"ax",%progbits
 103              		.align	2
 104              		.global	main
 105              		.code	16
 106              		.thumb_func
 107              		.type	main, %function
 108              	main:
 109              	.LFB35:
  33:.\main.c      **** 
  34:.\main.c      **** int main()
  35:.\main.c      **** {
 110              		.loc 1 35 0
 111              		.cfi_startproc
 112 0000 08B5     		push	{r3, lr}
 113              		.cfi_def_cfa_offset 8
 114              		.cfi_offset 3, -8
 115              		.cfi_offset 14, -4
  36:.\main.c      **** 
  37:.\main.c      ****     CyGlobalIntDisable;
 116              		.loc 1 37 0
 117              	@ 37 ".\main.c" 1
 118 0002 72B6     		CPSID   i
 119              	@ 0 "" 2
  38:.\main.c      ****     isr_2_StartEx(TimerISR);
 120              		.loc 1 38 0
 121              		.code	16
 122 0004 0448     		ldr	r0, .L9
 123 0006 FFF7FEFF 		bl	isr_2_StartEx
 124              	.LVL10:
  39:.\main.c      ****     isr_1_StartEx(SW_Int);
 125              		.loc 1 39 0
 126 000a 0448     		ldr	r0, .L9+4
 127 000c FFF7FEFF 		bl	isr_1_StartEx
 128              	.LVL11:
  40:.\main.c      ****     UART_1_Start();
 129              		.loc 1 40 0
 130 0010 FFF7FEFF 		bl	UART_1_Start
 131              	.LVL12:
ARM GAS  C:\Users\egh35\AppData\Local\Temp\ccdjDdgj.s 			page 4


  41:.\main.c      ****     CyGlobalIntEnable;
 132              		.loc 1 41 0
 133              	@ 41 ".\main.c" 1
 134 0014 62B6     		CPSIE   i
 135              	@ 0 "" 2
 136              		.code	16
 137              	.L8:
 138 0016 FEE7     		b	.L8
 139              	.L10:
 140              		.align	2
 141              	.L9:
 142 0018 00000000 		.word	TimerISR
 143 001c 00000000 		.word	SW_Int
 144              		.cfi_endproc
 145              	.LFE35:
 146              		.size	main, .-main
 147              		.section	.rodata.str1.4,"aMS",%progbits,1
 148              		.align	2
 149              	.LC0:
 150 0000 486900   		.ascii	"Hi\000"
 151 0003 00       		.space	1
 152              	.LC2:
 153 0004 70726573 		.ascii	"press\000"
 153      7300
 154 000a 0000     		.text
 155              	.Letext0:
 156              		.file 2 "Generated_Source\\PSoC4/cytypes.h"
 157              		.file 3 "Generated_Source\\PSoC4/LED_PIN.h"
 158              		.file 4 "Generated_Source\\PSoC4/UART_1_SPI_UART.h"
 159              		.file 5 "Generated_Source\\PSoC4/Timer_1.h"
 160              		.file 6 "Generated_Source\\PSoC4/SW.h"
 161              		.file 7 "Generated_Source\\PSoC4/isr_2.h"
 162              		.file 8 "Generated_Source\\PSoC4/isr_1.h"
 163              		.file 9 "Generated_Source\\PSoC4/UART_1.h"