ARM GAS  C:\Users\egh35\AppData\Local\Temp\ccQqA1sl.s 			page 1


   1              		.cpu cortex-m0
   2              		.fpu softvfp
   3              		.eabi_attribute 20, 1
   4              		.eabi_attribute 21, 1
   5              		.eabi_attribute 23, 3
   6              		.eabi_attribute 24, 1
   7              		.eabi_attribute 25, 1
   8              		.eabi_attribute 26, 1
   9              		.eabi_attribute 30, 1
  10              		.eabi_attribute 34, 0
  11              		.eabi_attribute 18, 4
  12              		.code	16
  13              		.file	"main.c"
  14              		.text
  15              	.Ltext0:
  16              		.cfi_sections	.debug_frame
  17              		.section	.text.SW_Int,"ax",%progbits
  18              		.align	2
  19              		.global	SW_Int
  20              		.code	16
  21              		.thumb_func
  22              		.type	SW_Int, %function
  23              	SW_Int:
  24              	.LFB34:
  25              		.file 1 ".\\main.c"
   1:.\main.c      **** /* ========================================
   2:.\main.c      ****  *
   3:.\main.c      ****  * Copyright YOUR COMPANY, THE YEAR
   4:.\main.c      ****  * All Rights Reserved
   5:.\main.c      ****  * UNPUBLISHED, LICENSED SOFTWARE.
   6:.\main.c      ****  *
   7:.\main.c      ****  * CONFIDENTIAL AND PROPRIETARY INFORMATION
   8:.\main.c      ****  * WHICH IS THE PROPERTY OF your company.
   9:.\main.c      ****  *
  10:.\main.c      ****  * ========================================
  11:.\main.c      **** */
  12:.\main.c      **** #include <project.h>
  13:.\main.c      **** #include <stdio.h>
  14:.\main.c      **** 
  15:.\main.c      **** 
  16:.\main.c      **** int press = 0; 
  17:.\main.c      **** int seconds_new, seconds_old, ms_new, ms_old, time_s, time_ms;
  18:.\main.c      **** 
  19:.\main.c      **** 
  20:.\main.c      **** void PrintInt(int b){
  21:.\main.c      ****     char buf[10];
  22:.\main.c      ****     sprintf(buf, "%d", b); 
  23:.\main.c      ****     UART_1_UartPutString(buf);
  24:.\main.c      **** 
  25:.\main.c      **** }
  26:.\main.c      **** 
  27:.\main.c      **** 
  28:.\main.c      **** 
  29:.\main.c      **** 
  30:.\main.c      **** 
  31:.\main.c      **** CY_ISR(SW_Int){
  26              		.loc 1 31 0
ARM GAS  C:\Users\egh35\AppData\Local\Temp\ccQqA1sl.s 			page 2


  27              		.cfi_startproc
  28 0000 10B5     		push	{r4, lr}
  29              		.cfi_def_cfa_offset 8
  30              		.cfi_offset 4, -8
  31              		.cfi_offset 14, -4
  32:.\main.c      ****  if(SW_Read() == 0){
  32              		.loc 1 32 0
  33 0002 FFF7FEFF 		bl	SW_Read
  34              	.LVL0:
  35 0006 0028     		cmp	r0, #0
  36 0008 1DD1     		bne	.L1
  33:.\main.c      ****     CyDelay(90);
  37              		.loc 1 33 0
  38 000a 5A20     		mov	r0, #90
  39 000c FFF7FEFF 		bl	CyDelay
  40              	.LVL1:
  34:.\main.c      ****     if(SW_Read() == 0){
  41              		.loc 1 34 0
  42 0010 FFF7FEFF 		bl	SW_Read
  43              	.LVL2:
  44 0014 0028     		cmp	r0, #0
  45 0016 16D1     		bne	.L1
  35:.\main.c      ****         UART_1_UartPutString("\n \r press");
  46              		.loc 1 35 0
  47 0018 0B48     		ldr	r0, .L3
  48 001a FFF7FEFF 		bl	UART_1_UartPutString
  49              	.LVL3:
  36:.\main.c      ****         ms_old = ms_new;
  50              		.loc 1 36 0
  51 001e 0B4C     		ldr	r4, .L3+4
  52 0020 0B4B     		ldr	r3, .L3+8
  53 0022 2268     		ldr	r2, [r4]
  54 0024 1A60     		str	r2, [r3]
  37:.\main.c      ****         ms_new = Timer_1_ReadCounter();
  55              		.loc 1 37 0
  56 0026 FFF7FEFF 		bl	Timer_1_ReadCounter
  57              	.LVL4:
  58 002a 2060     		str	r0, [r4]
  38:.\main.c      ****         
  39:.\main.c      ****         
  40:.\main.c      ****         seconds_old = seconds_new;
  59              		.loc 1 40 0
  60 002c 094C     		ldr	r4, .L3+12
  61 002e 0A4B     		ldr	r3, .L3+16
  62 0030 2268     		ldr	r2, [r4]
  63 0032 1A60     		str	r2, [r3]
  41:.\main.c      ****         seconds_new = Timer_2_ReadCounter();
  64              		.loc 1 41 0
  65 0034 FFF7FEFF 		bl	Timer_2_ReadCounter
  66              	.LVL5:
  67 0038 2060     		str	r0, [r4]
  42:.\main.c      ****         
  43:.\main.c      **** 
  44:.\main.c      ****         press++;
  68              		.loc 1 44 0
  69 003a 084B     		ldr	r3, .L3+20
  70 003c 1A68     		ldr	r2, [r3]
ARM GAS  C:\Users\egh35\AppData\Local\Temp\ccQqA1sl.s 			page 3


  71 003e 0132     		add	r2, r2, #1
  72 0040 1A60     		str	r2, [r3]
  45:.\main.c      ****         SW_ClearInterrupt();
  73              		.loc 1 45 0
  74 0042 FFF7FEFF 		bl	SW_ClearInterrupt
  75              	.LVL6:
  76              	.L1:
  46:.\main.c      ****         }
  47:.\main.c      ****     }   
  48:.\main.c      ****     
  49:.\main.c      ****     
  50:.\main.c      ****     }
  77              		.loc 1 50 0
  78              		@ sp needed
  79 0046 10BD     		pop	{r4, pc}
  80              	.L4:
  81              		.align	2
  82              	.L3:
  83 0048 00000000 		.word	.LC0
  84 004c 00000000 		.word	ms_new
  85 0050 00000000 		.word	ms_old
  86 0054 00000000 		.word	seconds_new
  87 0058 00000000 		.word	seconds_old
  88 005c 00000000 		.word	.LANCHOR0
  89              		.cfi_endproc
  90              	.LFE34:
  91              		.size	SW_Int, .-SW_Int
  92              		.section	.text.PrintInt,"ax",%progbits
  93              		.align	2
  94              		.global	PrintInt
  95              		.code	16
  96              		.thumb_func
  97              		.type	PrintInt, %function
  98              	PrintInt:
  99              	.LFB33:
  20:.\main.c      **** void PrintInt(int b){
 100              		.loc 1 20 0
 101              		.cfi_startproc
 102              	.LVL7:
 103 0000 00B5     		push	{lr}
 104              		.cfi_def_cfa_offset 4
 105              		.cfi_offset 14, -4
 106 0002 85B0     		sub	sp, sp, #20
 107              		.cfi_def_cfa_offset 24
 108 0004 021C     		mov	r2, r0
  22:.\main.c      ****     sprintf(buf, "%d", b); 
 109              		.loc 1 22 0
 110 0006 01A8     		add	r0, sp, #4
 111              	.LVL8:
 112 0008 0349     		ldr	r1, .L6
 113 000a FFF7FEFF 		bl	sprintf
 114              	.LVL9:
  23:.\main.c      ****     UART_1_UartPutString(buf);
 115              		.loc 1 23 0
 116 000e 01A8     		add	r0, sp, #4
 117 0010 FFF7FEFF 		bl	UART_1_UartPutString
 118              	.LVL10:
ARM GAS  C:\Users\egh35\AppData\Local\Temp\ccQqA1sl.s 			page 4


  25:.\main.c      **** }
 119              		.loc 1 25 0
 120 0014 05B0     		add	sp, sp, #20
 121              		@ sp needed
 122 0016 00BD     		pop	{pc}
 123              	.L7:
 124              		.align	2
 125              	.L6:
 126 0018 0C000000 		.word	.LC7
 127              		.cfi_endproc
 128              	.LFE33:
 129              		.size	PrintInt, .-PrintInt
 130              		.global	__aeabi_idiv
 131              		.section	.text.main,"ax",%progbits
 132              		.align	2
 133              		.global	main
 134              		.code	16
 135              		.thumb_func
 136              		.type	main, %function
 137              	main:
 138              	.LFB35:
  51:.\main.c      **** 
  52:.\main.c      **** 
  53:.\main.c      **** int main()
  54:.\main.c      **** {
 139              		.loc 1 54 0
 140              		.cfi_startproc
 141 0000 F0B5     		push	{r4, r5, r6, r7, lr}
 142              		.cfi_def_cfa_offset 20
 143              		.cfi_offset 4, -20
 144              		.cfi_offset 5, -16
 145              		.cfi_offset 6, -12
 146              		.cfi_offset 7, -8
 147              		.cfi_offset 14, -4
 148 0002 4746     		mov	r7, r8
 149 0004 80B4     		push	{r7}
 150              		.cfi_def_cfa_offset 24
 151              		.cfi_offset 8, -24
  55:.\main.c      ****     CyGlobalIntDisable;
 152              		.loc 1 55 0
 153              	@ 55 ".\main.c" 1
 154 0006 72B6     		CPSID   i
 155              	@ 0 "" 2
  56:.\main.c      ****     isr_sw_StartEx(SW_Int);
 156              		.loc 1 56 0
 157              		.code	16
 158 0008 1C48     		ldr	r0, .L12
 159 000a FFF7FEFF 		bl	isr_sw_StartEx
 160              	.LVL11:
  57:.\main.c      **** 
  58:.\main.c      ****     
  59:.\main.c      ****     CyGlobalIntEnable;      /* Enable global interrupts */
 161              		.loc 1 59 0
 162              	@ 59 ".\main.c" 1
 163 000e 62B6     		CPSIE   i
 164              	@ 0 "" 2
  60:.\main.c      **** 
ARM GAS  C:\Users\egh35\AppData\Local\Temp\ccQqA1sl.s 			page 5


  61:.\main.c      ****     UART_1_Start();
 165              		.loc 1 61 0
 166              		.code	16
 167 0010 FFF7FEFF 		bl	UART_1_Start
 168              	.LVL12:
  62:.\main.c      ****     Timer_1_Start();
 169              		.loc 1 62 0
 170 0014 FFF7FEFF 		bl	Timer_1_Start
 171              	.LVL13:
  63:.\main.c      ****     Timer_2_Start();
 172              		.loc 1 63 0
 173 0018 FFF7FEFF 		bl	Timer_2_Start
 174              	.LVL14:
  64:.\main.c      ****     
  65:.\main.c      ****     
  66:.\main.c      ****     for(;;)
  67:.\main.c      ****     {
  68:.\main.c      **** 
  69:.\main.c      ****       if(press == 2){
 175              		.loc 1 69 0
 176 001c 184C     		ldr	r4, .L12+4
 177              	.LBB2:
  70:.\main.c      ****             
  71:.\main.c      ****                         
  72:.\main.c      ****             time_s = abs(seconds_new - seconds_old)/1000;
 178              		.loc 1 72 0
 179 001e 194A     		ldr	r2, .L12+8
 180 0020 9046     		mov	r8, r2
 181 0022 194F     		ldr	r7, .L12+12
 182              	.L11:
 183              	.LBE2:
  69:.\main.c      ****       if(press == 2){
 184              		.loc 1 69 0
 185 0024 2368     		ldr	r3, [r4]
 186 0026 022B     		cmp	r3, #2
 187 0028 FCD1     		bne	.L11
 188              	.LBB3:
 189              		.loc 1 72 0
 190 002a 4246     		mov	r2, r8
 191 002c 1268     		ldr	r2, [r2]
 192 002e 3B68     		ldr	r3, [r7]
 193 0030 D01A     		sub	r0, r2, r3
 194 0032 C317     		asr	r3, r0, #31
 195 0034 C018     		add	r0, r0, r3
 196 0036 5840     		eor	r0, r3
 197 0038 FA21     		mov	r1, #250
 198 003a 8900     		lsl	r1, r1, #2
 199 003c FFF7FEFF 		bl	__aeabi_idiv
 200              	.LVL15:
 201 0040 124E     		ldr	r6, .L12+16
 202 0042 3060     		str	r0, [r6]
  73:.\main.c      ****             time_ms = (ms_old + 24000 - ms_new);
 203              		.loc 1 73 0
 204 0044 124B     		ldr	r3, .L12+20
 205 0046 1B68     		ldr	r3, [r3]
 206 0048 124A     		ldr	r2, .L12+24
 207 004a 9B18     		add	r3, r3, r2
ARM GAS  C:\Users\egh35\AppData\Local\Temp\ccQqA1sl.s 			page 6


 208 004c 124A     		ldr	r2, .L12+28
 209 004e 1268     		ldr	r2, [r2]
 210 0050 9B1A     		sub	r3, r3, r2
 211 0052 124D     		ldr	r5, .L12+32
 212 0054 2B60     		str	r3, [r5]
  74:.\main.c      ****             
  75:.\main.c      ****             UART_1_UartPutString("\n \r Time Between Presses: ");
 213              		.loc 1 75 0
 214 0056 1248     		ldr	r0, .L12+36
 215 0058 FFF7FEFF 		bl	UART_1_UartPutString
 216              	.LVL16:
  76:.\main.c      ****             PrintInt(time_s);
 217              		.loc 1 76 0
 218 005c 3068     		ldr	r0, [r6]
 219 005e FFF7FEFF 		bl	PrintInt
 220              	.LVL17:
  77:.\main.c      ****             UART_1_UartPutString(".");
 221              		.loc 1 77 0
 222 0062 1048     		ldr	r0, .L12+40
 223 0064 FFF7FEFF 		bl	UART_1_UartPutString
 224              	.LVL18:
  78:.\main.c      ****             PrintInt(time_ms);
 225              		.loc 1 78 0
 226 0068 2868     		ldr	r0, [r5]
 227 006a FFF7FEFF 		bl	PrintInt
 228              	.LVL19:
  79:.\main.c      ****             UART_1_UartPutString(" s");
 229              		.loc 1 79 0
 230 006e 0E48     		ldr	r0, .L12+44
 231 0070 FFF7FEFF 		bl	UART_1_UartPutString
 232              	.LVL20:
  80:.\main.c      ****             press = 0; 
 233              		.loc 1 80 0
 234 0074 0022     		mov	r2, #0
 235 0076 024B     		ldr	r3, .L12+4
 236 0078 1A60     		str	r2, [r3]
 237 007a D3E7     		b	.L11
 238              	.L13:
 239              		.align	2
 240              	.L12:
 241 007c 00000000 		.word	SW_Int
 242 0080 00000000 		.word	.LANCHOR0
 243 0084 00000000 		.word	seconds_new
 244 0088 00000000 		.word	seconds_old
 245 008c 00000000 		.word	time_s
 246 0090 00000000 		.word	ms_old
 247 0094 C05D0000 		.word	24000
 248 0098 00000000 		.word	ms_new
 249 009c 00000000 		.word	time_ms
 250 00a0 10000000 		.word	.LC17
 251 00a4 2C000000 		.word	.LC19
 252 00a8 30000000 		.word	.LC21
 253              	.LBE3:
 254              		.cfi_endproc
 255              	.LFE35:
 256              		.size	main, .-main
 257              		.comm	time_ms,4,4
ARM GAS  C:\Users\egh35\AppData\Local\Temp\ccQqA1sl.s 			page 7


 258              		.comm	time_s,4,4
 259              		.comm	ms_old,4,4
 260              		.comm	ms_new,4,4
 261              		.comm	seconds_old,4,4
 262              		.comm	seconds_new,4,4
 263              		.global	press
 264              		.section	.rodata.str1.4,"aMS",%progbits,1
 265              		.align	2
 266              	.LC0:
 267 0000 0A200D20 		.ascii	"\012 \015 press\000"
 267      70726573 
 267      7300
 268 000a 0000     		.space	2
 269              	.LC7:
 270 000c 256400   		.ascii	"%d\000"
 271 000f 00       		.space	1
 272              	.LC17:
 273 0010 0A200D20 		.ascii	"\012 \015 Time Between Presses: \000"
 273      54696D65 
 273      20426574 
 273      7765656E 
 273      20507265 
 274 002b 00       		.space	1
 275              	.LC19:
 276 002c 2E00     		.ascii	".\000"
 277 002e 0000     		.space	2
 278              	.LC21:
 279 0030 207300   		.ascii	" s\000"
 280 0033 00       		.bss
 281              		.align	2
 282              		.set	.LANCHOR0,. + 0
 283              		.type	press, %object
 284              		.size	press, 4
 285              	press:
 286 0000 00000000 		.space	4
 287              		.text
 288              	.Letext0:
 289              		.file 2 "Generated_Source\\PSoC4/cytypes.h"
 290              		.file 3 "Generated_Source\\PSoC4/CyLib.h"
 291              		.file 4 "Generated_Source\\PSoC4/UART_1_SPI_UART.h"
 292              		.file 5 "Generated_Source\\PSoC4/SW.h"
 293              		.file 6 "Generated_Source\\PSoC4/Timer_1.h"
 294              		.file 7 "Generated_Source\\PSoC4/Timer_2.h"
 295              		.file 8 "Generated_Source\\PSoC4/isr_sw.h"
 296              		.file 9 "Generated_Source\\PSoC4/UART_1.h"
 297              		.file 10 "<built-in>"
 298              		.file 11 "c:\\program files (x86)\\cypress\\psoc creator\\3.2\\psoc creator\\import\\gnu\\arm\\4.8