ARM GAS  C:\Users\egh35\AppData\Local\Temp\ccl3to9a.s 			page 1


   1              		.cpu cortex-m0
   2              		.fpu softvfp
   3              		.eabi_attribute 20, 1
   4              		.eabi_attribute 21, 1
   5              		.eabi_attribute 23, 3
   6              		.eabi_attribute 24, 1
   7              		.eabi_attribute 25, 1
   8              		.eabi_attribute 26, 1
   9              		.eabi_attribute 30, 1
  10              		.eabi_attribute 34, 0
  11              		.eabi_attribute 18, 4
  12              		.code	16
  13              		.file	"main.c"
  14              		.text
  15              	.Ltext0:
  16              		.cfi_sections	.debug_frame
  17              		.section	.text.UART_Int,"ax",%progbits
  18              		.align	2
  19              		.global	UART_Int
  20              		.code	16
  21              		.thumb_func
  22              		.type	UART_Int, %function
  23              	UART_Int:
  24              	.LFB34:
  25              		.file 1 ".\\main.c"
   1:.\main.c      **** /* ========================================
   2:.\main.c      ****  *
   3:.\main.c      ****  * Copyright YOUR COMPANY, THE YEAR
   4:.\main.c      ****  * All Rights Reserved
   5:.\main.c      ****  * UNPUBLISHED, LICENSED SOFTWARE.
   6:.\main.c      ****  *
   7:.\main.c      ****  * CONFIDENTIAL AND PROPRIETARY INFORMATION
   8:.\main.c      ****  * WHICH IS THE PROPERTY OF your company.
   9:.\main.c      ****  *
  10:.\main.c      ****  * ========================================
  11:.\main.c      **** */
  12:.\main.c      **** #include <project.h>
  13:.\main.c      **** #include <stdio.h>
  14:.\main.c      **** #include <stdbool.h> 
  15:.\main.c      **** 
  16:.\main.c      **** bool accept_input;
  17:.\main.c      **** int blink_it; 
  18:.\main.c      **** 
  19:.\main.c      **** void PrintInt(int b){
  20:.\main.c      ****     char buf[10];
  21:.\main.c      ****     sprintf(buf, "%d", b); 
  22:.\main.c      ****     UART_1_UartPutString(buf);
  23:.\main.c      **** 
  24:.\main.c      **** }
  25:.\main.c      **** 
  26:.\main.c      **** CY_ISR(UART_Int) /* ISR associated with the UART. */
  27:.\main.c      **** {
  26              		.loc 1 27 0
  27              		.cfi_startproc
  28 0000 10B5     		push	{r4, lr}
  29              		.cfi_def_cfa_offset 8
  30              		.cfi_offset 4, -8
ARM GAS  C:\Users\egh35\AppData\Local\Temp\ccl3to9a.s 			page 2


  31              		.cfi_offset 14, -4
  28:.\main.c      **** uint32 rxData;
  29:.\main.c      **** rxData = UART_1_UartGetChar(); /* Get character from buffer. */
  32              		.loc 1 29 0
  33 0002 FFF7FEFF 		bl	UART_1_UartGetChar
  34              	.LVL0:
  35 0006 041C     		mov	r4, r0
  36              	.LVL1:
  30:.\main.c      **** UART_1_UartPutChar(rxData); /* Echo back to terminal. */
  37              		.loc 1 30 0
  38 0008 FFF7FEFF 		bl	UART_1_SpiUartWriteTxData
  39              	.LVL2:
  31:.\main.c      **** if((rxData > 47) & (rxData < 54)){
  40              		.loc 1 31 0
  41 000c 231C     		mov	r3, r4
  42 000e 303B     		sub	r3, r3, #48
  43 0010 052B     		cmp	r3, #5
  44 0012 02D8     		bhi	.L2
  32:.\main.c      ****     blink_it = rxData - 49; 
  45              		.loc 1 32 0
  46 0014 313C     		sub	r4, r4, #49
  47              	.LVL3:
  48 0016 034B     		ldr	r3, .L3
  49 0018 1C60     		str	r4, [r3]
  50              	.LVL4:
  51              	.L2:
  33:.\main.c      **** }
  34:.\main.c      **** /* Process the user input as appropriate. */
  35:.\main.c      **** /* Clear the interrrupt. */
  36:.\main.c      **** UART_1_ClearRxInterruptSource(UART_1_GetRxInterruptSource());
  52              		.loc 1 36 0
  53 001a 034B     		ldr	r3, .L3+4
  54 001c 1A68     		ldr	r2, [r3]
  55 001e 1A60     		str	r2, [r3]
  37:.\main.c      **** }
  56              		.loc 1 37 0
  57              		@ sp needed
  58 0020 10BD     		pop	{r4, pc}
  59              	.L4:
  60 0022 C046     		.align	2
  61              	.L3:
  62 0024 00000000 		.word	blink_it
  63 0028 C00F0740 		.word	1074204608
  64              		.cfi_endproc
  65              	.LFE34:
  66              		.size	UART_Int, .-UART_Int
  67              		.section	.text.SW_Int,"ax",%progbits
  68              		.align	2
  69              		.global	SW_Int
  70              		.code	16
  71              		.thumb_func
  72              		.type	SW_Int, %function
  73              	SW_Int:
  74              	.LFB35:
  38:.\main.c      **** 
  39:.\main.c      **** 
  40:.\main.c      **** CY_ISR(SW_Int) /* ISR associated with the GPIO. */
ARM GAS  C:\Users\egh35\AppData\Local\Temp\ccl3to9a.s 			page 3


  41:.\main.c      **** {
  75              		.loc 1 41 0
  76              		.cfi_startproc
  77 0000 08B5     		push	{r3, lr}
  78              		.cfi_def_cfa_offset 8
  79              		.cfi_offset 3, -8
  80              		.cfi_offset 14, -4
  42:.\main.c      **** CyDelay(50); /* Debouncing the switch. */
  81              		.loc 1 42 0
  82 0002 3220     		mov	r0, #50
  83 0004 FFF7FEFF 		bl	CyDelay
  84              	.LVL5:
  85              	.L6:
  43:.\main.c      **** while(!SW_Read()); /* Wait for switch to be released. */
  86              		.loc 1 43 0 discriminator 1
  87 0008 FFF7FEFF 		bl	SW_Read
  88              	.LVL6:
  89 000c 0028     		cmp	r0, #0
  90 000e FBD0     		beq	.L6
  44:.\main.c      **** CyDelay(50);
  91              		.loc 1 44 0
  92 0010 3220     		mov	r0, #50
  93 0012 FFF7FEFF 		bl	CyDelay
  94              	.LVL7:
  45:.\main.c      **** 
  46:.\main.c      **** if(accept_input == false){
  95              		.loc 1 46 0
  96 0016 094B     		ldr	r3, .L10
  97 0018 1B78     		ldrb	r3, [r3]
  98 001a 002B     		cmp	r3, #0
  99 001c 03D1     		bne	.L7
  47:.\main.c      ****     UART_1_UartPutString("\n \r Input is enabled");
 100              		.loc 1 47 0
 101 001e 0848     		ldr	r0, .L10+4
 102 0020 FFF7FEFF 		bl	UART_1_UartPutString
 103              	.LVL8:
 104 0024 02E0     		b	.L8
 105              	.L7:
  48:.\main.c      **** }
  49:.\main.c      **** else{
  50:.\main.c      ****     UART_1_UartPutString("\n \r Input is disabled");
 106              		.loc 1 50 0
 107 0026 0748     		ldr	r0, .L10+8
 108 0028 FFF7FEFF 		bl	UART_1_UartPutString
 109              	.LVL9:
 110              	.L8:
  51:.\main.c      **** }
  52:.\main.c      **** accept_input = !(accept_input);
 111              		.loc 1 52 0
 112 002c 034B     		ldr	r3, .L10
 113 002e 1978     		ldrb	r1, [r3]
 114 0030 0122     		mov	r2, #1
 115 0032 4A40     		eor	r2, r1
 116 0034 1A70     		strb	r2, [r3]
  53:.\main.c      **** 
  54:.\main.c      **** SW_ClearInterrupt(); /* Clear the interrupt. */
 117              		.loc 1 54 0
ARM GAS  C:\Users\egh35\AppData\Local\Temp\ccl3to9a.s 			page 4


 118 0036 FFF7FEFF 		bl	SW_ClearInterrupt
 119              	.LVL10:
  55:.\main.c      **** }
 120              		.loc 1 55 0
 121              		@ sp needed
 122 003a 08BD     		pop	{r3, pc}
 123              	.L11:
 124              		.align	2
 125              	.L10:
 126 003c 00000000 		.word	accept_input
 127 0040 00000000 		.word	.LC2
 128 0044 18000000 		.word	.LC4
 129              		.cfi_endproc
 130              	.LFE35:
 131              		.size	SW_Int, .-SW_Int
 132              		.section	.text.PrintInt,"ax",%progbits
 133              		.align	2
 134              		.global	PrintInt
 135              		.code	16
 136              		.thumb_func
 137              		.type	PrintInt, %function
 138              	PrintInt:
 139              	.LFB33:
  19:.\main.c      **** void PrintInt(int b){
 140              		.loc 1 19 0
 141              		.cfi_startproc
 142              	.LVL11:
 143 0000 00B5     		push	{lr}
 144              		.cfi_def_cfa_offset 4
 145              		.cfi_offset 14, -4
 146 0002 85B0     		sub	sp, sp, #20
 147              		.cfi_def_cfa_offset 24
 148 0004 021C     		mov	r2, r0
  21:.\main.c      ****     sprintf(buf, "%d", b); 
 149              		.loc 1 21 0
 150 0006 01A8     		add	r0, sp, #4
 151              	.LVL12:
 152 0008 0349     		ldr	r1, .L13
 153 000a FFF7FEFF 		bl	sprintf
 154              	.LVL13:
  22:.\main.c      ****     UART_1_UartPutString(buf);
 155              		.loc 1 22 0
 156 000e 01A8     		add	r0, sp, #4
 157 0010 FFF7FEFF 		bl	UART_1_UartPutString
 158              	.LVL14:
  24:.\main.c      **** }
 159              		.loc 1 24 0
 160 0014 05B0     		add	sp, sp, #20
 161              		@ sp needed
 162 0016 00BD     		pop	{pc}
 163              	.L14:
 164              		.align	2
 165              	.L13:
 166 0018 30000000 		.word	.LC6
 167              		.cfi_endproc
 168              	.LFE33:
 169              		.size	PrintInt, .-PrintInt
ARM GAS  C:\Users\egh35\AppData\Local\Temp\ccl3to9a.s 			page 5


 170              		.section	.text.main,"ax",%progbits
 171              		.align	2
 172              		.global	main
 173              		.code	16
 174              		.thumb_func
 175              		.type	main, %function
 176              	main:
 177              	.LFB36:
  56:.\main.c      **** 
  57:.\main.c      **** 
  58:.\main.c      **** 
  59:.\main.c      **** int main()
  60:.\main.c      **** {
 178              		.loc 1 60 0
 179              		.cfi_startproc
 180 0000 F8B5     		push	{r3, r4, r5, r6, r7, lr}
 181              		.cfi_def_cfa_offset 24
 182              		.cfi_offset 3, -24
 183              		.cfi_offset 4, -20
 184              		.cfi_offset 5, -16
 185              		.cfi_offset 6, -12
 186              		.cfi_offset 7, -8
 187              		.cfi_offset 14, -4
  61:.\main.c      **** 
  62:.\main.c      **** accept_input = false; 
 188              		.loc 1 62 0
 189 0002 0022     		mov	r2, #0
 190 0004 184B     		ldr	r3, .L25
 191 0006 1A70     		strb	r2, [r3]
 192              	.LVL15:
  63:.\main.c      **** int blkt = 500;     
  64:.\main.c      ****     
  65:.\main.c      **** CyGlobalIntDisable; /* Disable global interrupts. */
 193              		.loc 1 65 0
 194              	@ 65 ".\main.c" 1
 195 0008 72B6     		CPSID   i
 196              	@ 0 "" 2
  66:.\main.c      **** UART_Int_StartEx(UART_Int); /* Start the ISR. */
 197              		.loc 1 66 0
 198              		.code	16
 199 000a 1848     		ldr	r0, .L25+4
 200 000c FFF7FEFF 		bl	UART_Int_StartEx
 201              	.LVL16:
  67:.\main.c      **** 
  68:.\main.c      **** 
  69:.\main.c      **** 
  70:.\main.c      **** SW_Int_StartEx(SW_Int); /* Start the ISR. */
 202              		.loc 1 70 0
 203 0010 1748     		ldr	r0, .L25+8
 204 0012 FFF7FEFF 		bl	SW_Int_StartEx
 205              	.LVL17:
  71:.\main.c      **** CyGlobalIntEnable; /* Enable global interrupts */
 206              		.loc 1 71 0
 207              	@ 71 ".\main.c" 1
 208 0016 62B6     		CPSIE   i
 209              	@ 0 "" 2
  72:.\main.c      **** 
ARM GAS  C:\Users\egh35\AppData\Local\Temp\ccl3to9a.s 			page 6


  73:.\main.c      **** 
  74:.\main.c      **** UART_1_Start(); /* Start the UART. */
 210              		.loc 1 74 0
 211              		.code	16
 212 0018 FFF7FEFF 		bl	UART_1_Start
 213              	.LVL18:
  63:.\main.c      **** int blkt = 500;     
 214              		.loc 1 63 0
 215 001c FA24     		mov	r4, #250
 216 001e 6400     		lsl	r4, r4, #1
  75:.\main.c      **** 
  76:.\main.c      **** 
  77:.\main.c      **** for(;;){
  78:.\main.c      **** 
  79:.\main.c      **** if(accept_input == true){
 217              		.loc 1 79 0
 218 0020 114D     		ldr	r5, .L25
  80:.\main.c      **** 
  81:.\main.c      ****     switch(blink_it){
 219              		.loc 1 81 0
 220 0022 144E     		ldr	r6, .L25+12
 221 0024 144F     		ldr	r7, .L25+16
 222              	.LVL19:
 223              	.L23:
  79:.\main.c      **** if(accept_input == true){
 224              		.loc 1 79 0
 225 0026 2B78     		ldrb	r3, [r5]
 226 0028 002B     		cmp	r3, #0
 227 002a 11D0     		beq	.L16
 228              		.loc 1 81 0
 229 002c 3268     		ldr	r2, [r6]
 230 002e 042A     		cmp	r2, #4
 231 0030 0ED8     		bhi	.L16
 232 0032 9300     		lsl	r3, r2, #2
 233 0034 FB58     		ldr	r3, [r7, r3]
 234 0036 9F46     		mov	pc, r3
 235              		.section	.rodata
 236              		.align	2
 237              	.L18:
 238 0000 4C000000 		.word	.L24
 239 0004 38000000 		.word	.L19
 240 0008 3E000000 		.word	.L20
 241 000c 42000000 		.word	.L21
 242 0010 48000000 		.word	.L22
 243              		.section	.text.main
 244              	.L19:
 245              	.LVL20:
  82:.\main.c      ****     case 0:
  83:.\main.c      ****     blkt = 500; 
  84:.\main.c      ****     break; 
  85:.\main.c      ****     
  86:.\main.c      ****     case 1:
  87:.\main.c      ****     blkt = 1000; 
 246              		.loc 1 87 0
 247 0038 FA24     		mov	r4, #250
 248 003a A400     		lsl	r4, r4, #2
  88:.\main.c      ****     break; 
ARM GAS  C:\Users\egh35\AppData\Local\Temp\ccl3to9a.s 			page 7


 249              		.loc 1 88 0
 250 003c 08E0     		b	.L16
 251              	.LVL21:
 252              	.L20:
  89:.\main.c      ****     
  90:.\main.c      ****     case 2:
  91:.\main.c      ****     blkt = 1500; 
 253              		.loc 1 91 0
 254 003e 0F4C     		ldr	r4, .L25+20
  92:.\main.c      ****     break;
 255              		.loc 1 92 0
 256 0040 06E0     		b	.L16
 257              	.LVL22:
 258              	.L21:
  93:.\main.c      ****     
  94:.\main.c      ****     case 3:
  95:.\main.c      ****     blkt = 2000; 
 259              		.loc 1 95 0
 260 0042 FA24     		mov	r4, #250
 261 0044 E400     		lsl	r4, r4, #3
  96:.\main.c      ****     
  97:.\main.c      ****     break; 
 262              		.loc 1 97 0
 263 0046 03E0     		b	.L16
 264              	.LVL23:
 265              	.L22:
  98:.\main.c      ****     
  99:.\main.c      ****     case 4:
 100:.\main.c      ****     blkt = 2500;
 266              		.loc 1 100 0
 267 0048 0D4C     		ldr	r4, .L25+24
 101:.\main.c      ****     break;
 268              		.loc 1 101 0
 269 004a 01E0     		b	.L16
 270              	.LVL24:
 271              	.L24:
  83:.\main.c      ****     blkt = 500; 
 272              		.loc 1 83 0
 273 004c FA24     		mov	r4, #250
 274              	.LVL25:
 275 004e 6400     		lsl	r4, r4, #1
 276              	.L16:
 277              	.LVL26:
 102:.\main.c      ****     
 103:.\main.c      **** }
 104:.\main.c      **** }
 105:.\main.c      **** 
 106:.\main.c      **** 
 107:.\main.c      **** RED_LED_Write(!(RED_LED_Read()));    
 278              		.loc 1 107 0
 279 0050 FFF7FEFF 		bl	RED_LED_Read
 280              	.LVL27:
 281 0054 4342     		neg	r3, r0
 282 0056 4341     		adc	r3, r3, r0
 283 0058 D8B2     		uxtb	r0, r3
 284 005a FFF7FEFF 		bl	RED_LED_Write
 285              	.LVL28:
ARM GAS  C:\Users\egh35\AppData\Local\Temp\ccl3to9a.s 			page 8


 108:.\main.c      **** CyDelay(blkt); 
 286              		.loc 1 108 0
 287 005e 201C     		mov	r0, r4
 288 0060 FFF7FEFF 		bl	CyDelay
 289              	.LVL29:
 109:.\main.c      ****     
 110:.\main.c      ****     
 111:.\main.c      **** /* Procesing code. */
 112:.\main.c      **** }
 290              		.loc 1 112 0
 291 0064 DFE7     		b	.L23
 292              	.L26:
 293 0066 C046     		.align	2
 294              	.L25:
 295 0068 00000000 		.word	accept_input
 296 006c 00000000 		.word	UART_Int
 297 0070 00000000 		.word	SW_Int
 298 0074 00000000 		.word	blink_it
 299 0078 00000000 		.word	.L18
 300 007c DC050000 		.word	1500
 301 0080 C4090000 		.word	2500
 302              		.cfi_endproc
 303              	.LFE36:
 304              		.size	main, .-main
 305              		.comm	blink_it,4,4
 306              		.comm	accept_input,1,1
 307              		.section	.rodata.str1.4,"aMS",%progbits,1
 308              		.align	2
 309              	.LC2:
 310 0000 0A200D20 		.ascii	"\012 \015 Input is enabled\000"
 310      496E7075 
 310      74206973 
 310      20656E61 
 310      626C6564 
 311 0015 000000   		.space	3
 312              	.LC4:
 313 0018 0A200D20 		.ascii	"\012 \015 Input is disabled\000"
 313      496E7075 
 313      74206973 
 313      20646973 
 313      61626C65 
 314 002e 0000     		.space	2
 315              	.LC6:
 316 0030 256400   		.ascii	"%d\000"
 317 0033 00       		.text
 318              	.Letext0:
 319              		.file 2 "Generated_Source\\PSoC4/cytypes.h"
 320              		.file 3 "Generated_Source\\PSoC4/UART_1_SPI_UART.h"
 321              		.file 4 "Generated_Source\\PSoC4/CyLib.h"
 322              		.file 5 "Generated_Source\\PSoC4/SW.h"
 323              		.file 6 "Generated_Source\\PSoC4/UART_Int.h"
 324              		.file 7 "Generated_Source\\PSoC4/SW_Int.h"
 325              		.file 8 "Generated_Source\\PSoC4/RED_LED.h"
 326              		.file 9 "c:\\program files (x86)\\cypress\\psoc creator\\3.2\\psoc creator\\import\\gnu\\arm\\4.8.
 327              		.file 10 "Generated_Source\\PSoC4/UART_1.h"