ARM GAS  C:\Users\egh35\AppData\Local\Temp\ccckhMba.s 			page 1


   1              		.cpu cortex-m0
   2              		.fpu softvfp
   3              		.eabi_attribute 20, 1
   4              		.eabi_attribute 21, 1
   5              		.eabi_attribute 23, 3
   6              		.eabi_attribute 24, 1
   7              		.eabi_attribute 25, 1
   8              		.eabi_attribute 26, 1
   9              		.eabi_attribute 30, 1
  10              		.eabi_attribute 34, 0
  11              		.eabi_attribute 18, 4
  12              		.code	16
  13              		.file	"main.c"
  14              		.text
  15              	.Ltext0:
  16              		.cfi_sections	.debug_frame
  17              		.section	.text.timerISR,"ax",%progbits
  18              		.align	2
  19              		.global	timerISR
  20              		.code	16
  21              		.thumb_func
  22              		.type	timerISR, %function
  23              	timerISR:
  24              	.LFB33:
  25              		.file 1 ".\\main.c"
   1:.\main.c      **** /* ========================================
   2:.\main.c      ****  *
   3:.\main.c      ****  * Copyright YOUR COMPANY, THE YEAR
   4:.\main.c      ****  * All Rights Reserved
   5:.\main.c      ****  * UNPUBLISHED, LICENSED SOFTWARE.
   6:.\main.c      ****  *
   7:.\main.c      ****  * CONFIDENTIAL AND PROPRIETARY INFORMATION
   8:.\main.c      ****  * WHICH IS THE PROPERTY OF your company.
   9:.\main.c      ****  *
  10:.\main.c      ****  * ========================================
  11:.\main.c      **** */
  12:.\main.c      **** #include <project.h>
  13:.\main.c      **** #include <stdio.h>
  14:.\main.c      **** #include <stdbool.h>
  15:.\main.c      **** #include <time.h>
  16:.\main.c      **** 
  17:.\main.c      **** char combo[5] = {'1', '2', '3', '4', '5'};
  18:.\main.c      **** int currentState = -1;
  19:.\main.c      **** bool disable_entry = false;
  20:.\main.c      **** int tc = 0; 
  21:.\main.c      **** 
  22:.\main.c      **** 
  23:.\main.c      **** 
  24:.\main.c      **** CY_ISR(timerISR) /* ISR to handle tc interrupts from timer. */
  25:.\main.c      **** {
  26              		.loc 1 25 0
  27              		.cfi_startproc
  28 0000 08B5     		push	{r3, lr}
  29              		.cfi_def_cfa_offset 8
  30              		.cfi_offset 3, -8
  31              		.cfi_offset 14, -4
  26:.\main.c      **** 
ARM GAS  C:\Users\egh35\AppData\Local\Temp\ccckhMba.s 			page 2


  27:.\main.c      **** if(currentState == -2){
  32              		.loc 1 27 0
  33 0002 094B     		ldr	r3, .L3
  34 0004 1B68     		ldr	r3, [r3]
  35 0006 0233     		add	r3, r3, #2
  36 0008 06D1     		bne	.L2
  28:.\main.c      ****     
  29:.\main.c      **** RED_LED_Write(!RED_LED_Read());
  37              		.loc 1 29 0
  38 000a FFF7FEFF 		bl	RED_LED_Read
  39              	.LVL0:
  40 000e 4342     		neg	r3, r0
  41 0010 5841     		adc	r0, r0, r3
  42 0012 C0B2     		uxtb	r0, r0
  43 0014 FFF7FEFF 		bl	RED_LED_Write
  44              	.LVL1:
  45              	.L2:
  30:.\main.c      ****     
  31:.\main.c      **** }
  32:.\main.c      **** 
  33:.\main.c      **** tc++; //timer triggers every 100 ms, 10 = 1 s
  46              		.loc 1 33 0
  47 0018 044B     		ldr	r3, .L3+4
  48 001a 1A68     		ldr	r2, [r3]
  49 001c 0132     		add	r2, r2, #1
  50 001e 1A60     		str	r2, [r3]
  34:.\main.c      **** 
  35:.\main.c      **** 
  36:.\main.c      **** /* Your ISR code. */
  37:.\main.c      **** /* Reset the interrupt. */
  38:.\main.c      **** Timer_1_ReadStatusRegister();
  51              		.loc 1 38 0
  52 0020 FFF7FEFF 		bl	Timer_1_ReadStatusRegister
  53              	.LVL2:
  39:.\main.c      **** }
  54              		.loc 1 39 0
  55              		@ sp needed
  56 0024 08BD     		pop	{r3, pc}
  57              	.L4:
  58 0026 C046     		.align	2
  59              	.L3:
  60 0028 00000000 		.word	.LANCHOR0
  61 002c 00000000 		.word	.LANCHOR1
  62              		.cfi_endproc
  63              	.LFE33:
  64              		.size	timerISR, .-timerISR
  65              		.section	.text.getButton,"ax",%progbits
  66              		.align	2
  67              		.global	getButton
  68              		.code	16
  69              		.thumb_func
  70              		.type	getButton, %function
  71              	getButton:
  72              	.LFB34:
  40:.\main.c      **** 
  41:.\main.c      **** 
  42:.\main.c      **** 
ARM GAS  C:\Users\egh35\AppData\Local\Temp\ccckhMba.s 			page 3


  43:.\main.c      **** 
  44:.\main.c      **** 
  45:.\main.c      **** 
  46:.\main.c      **** char getButton(){
  73              		.loc 1 46 0
  74              		.cfi_startproc
  75 0000 10B5     		push	{r4, lr}
  76              		.cfi_def_cfa_offset 8
  77              		.cfi_offset 4, -8
  78              		.cfi_offset 14, -4
  47:.\main.c      ****     char rxData;
  48:.\main.c      ****     rxData = UART_1_UartGetChar();
  79              		.loc 1 48 0
  80 0002 FFF7FEFF 		bl	UART_1_UartGetChar
  81              	.LVL3:
  82 0006 031C     		mov	r3, r0
  83 0008 C4B2     		uxtb	r4, r0
  84              	.LVL4:
  49:.\main.c      ****     
  50:.\main.c      ****     UART_1_UartPutChar(rxData);
  85              		.loc 1 50 0
  86 000a FF20     		mov	r0, #255
  87              	.LVL5:
  88 000c 1840     		and	r0, r3
  89 000e FFF7FEFF 		bl	UART_1_SpiUartWriteTxData
  90              	.LVL6:
  51:.\main.c      ****     
  52:.\main.c      ****     return rxData; 
  53:.\main.c      ****     
  54:.\main.c      ****     
  55:.\main.c      **** 
  56:.\main.c      **** }
  91              		.loc 1 56 0
  92 0012 201C     		mov	r0, r4
  93              		@ sp needed
  94              	.LVL7:
  95 0014 10BD     		pop	{r4, pc}
  96              		.cfi_endproc
  97              	.LFE34:
  98              		.size	getButton, .-getButton
  99 0016 C046     		.section	.text.PrintInt,"ax",%progbits
 100              		.align	2
 101              		.global	PrintInt
 102              		.code	16
 103              		.thumb_func
 104              		.type	PrintInt, %function
 105              	PrintInt:
 106              	.LFB35:
  57:.\main.c      **** void PrintInt(int b){
 107              		.loc 1 57 0
 108              		.cfi_startproc
 109              	.LVL8:
 110 0000 00B5     		push	{lr}
 111              		.cfi_def_cfa_offset 4
 112              		.cfi_offset 14, -4
 113 0002 85B0     		sub	sp, sp, #20
 114              		.cfi_def_cfa_offset 24
ARM GAS  C:\Users\egh35\AppData\Local\Temp\ccckhMba.s 			page 4


 115 0004 021C     		mov	r2, r0
  58:.\main.c      ****     char buf[10];
  59:.\main.c      ****     sprintf(buf, "%d", b); 
 116              		.loc 1 59 0
 117 0006 01A8     		add	r0, sp, #4
 118              	.LVL9:
 119 0008 0349     		ldr	r1, .L7
 120 000a FFF7FEFF 		bl	sprintf
 121              	.LVL10:
  60:.\main.c      ****     UART_1_UartPutString(buf);
 122              		.loc 1 60 0
 123 000e 01A8     		add	r0, sp, #4
 124 0010 FFF7FEFF 		bl	UART_1_UartPutString
 125              	.LVL11:
  61:.\main.c      **** 
  62:.\main.c      **** }
 126              		.loc 1 62 0
 127 0014 05B0     		add	sp, sp, #20
 128              		@ sp needed
 129 0016 00BD     		pop	{pc}
 130              	.L8:
 131              		.align	2
 132              	.L7:
 133 0018 00000000 		.word	.LC2
 134              		.cfi_endproc
 135              	.LFE35:
 136              		.size	PrintInt, .-PrintInt
 137              		.section	.text.Printchar,"ax",%progbits
 138              		.align	2
 139              		.global	Printchar
 140              		.code	16
 141              		.thumb_func
 142              		.type	Printchar, %function
 143              	Printchar:
 144              	.LFB36:
  63:.\main.c      **** void Printchar(char b){
 145              		.loc 1 63 0
 146              		.cfi_startproc
 147              	.LVL12:
 148 0000 00B5     		push	{lr}
 149              		.cfi_def_cfa_offset 4
 150              		.cfi_offset 14, -4
 151 0002 85B0     		sub	sp, sp, #20
 152              		.cfi_def_cfa_offset 24
 153 0004 021C     		mov	r2, r0
  64:.\main.c      ****     char buf[10];
  65:.\main.c      ****     sprintf(buf, "%c", b); 
 154              		.loc 1 65 0
 155 0006 01A8     		add	r0, sp, #4
 156              	.LVL13:
 157 0008 0349     		ldr	r1, .L10
 158 000a FFF7FEFF 		bl	sprintf
 159              	.LVL14:
  66:.\main.c      ****     UART_1_UartPutString(buf);
 160              		.loc 1 66 0
 161 000e 01A8     		add	r0, sp, #4
 162 0010 FFF7FEFF 		bl	UART_1_UartPutString
ARM GAS  C:\Users\egh35\AppData\Local\Temp\ccckhMba.s 			page 5


 163              	.LVL15:
  67:.\main.c      **** 
  68:.\main.c      **** }
 164              		.loc 1 68 0
 165 0014 05B0     		add	sp, sp, #20
 166              		@ sp needed
 167 0016 00BD     		pop	{pc}
 168              	.L11:
 169              		.align	2
 170              	.L10:
 171 0018 04000000 		.word	.LC4
 172              		.cfi_endproc
 173              	.LFE36:
 174              		.size	Printchar, .-Printchar
 175              		.section	.text.InitCode,"ax",%progbits
 176              		.align	2
 177              		.global	InitCode
 178              		.code	16
 179              		.thumb_func
 180              		.type	InitCode, %function
 181              	InitCode:
 182              	.LFB37:
  69:.\main.c      **** 
  70:.\main.c      **** void InitCode(){
 183              		.loc 1 70 0
 184              		.cfi_startproc
 185 0000 30B5     		push	{r4, r5, lr}
 186              		.cfi_def_cfa_offset 12
 187              		.cfi_offset 4, -12
 188              		.cfi_offset 5, -8
 189              		.cfi_offset 14, -4
 190 0002 85B0     		sub	sp, sp, #20
 191              		.cfi_def_cfa_offset 32
  71:.\main.c      ****     currentState = -2;
 192              		.loc 1 71 0
 193 0004 0222     		mov	r2, #2
 194 0006 5242     		neg	r2, r2
 195 0008 2A4B     		ldr	r3, .L33
 196 000a 1A60     		str	r2, [r3]
 197              	.LVL16:
  72:.\main.c      ****     int i = 0;
  73:.\main.c      ****     char verify;
  74:.\main.c      ****     char combo1[sizeof(combo)], combo2[sizeof(combo)];
  75:.\main.c      ****     bool isEqual = true;
  76:.\main.c      ****     
  77:.\main.c      ****     UART_1_UartPutString("\n \r Enter code:"); //initial entry of new code
 198              		.loc 1 77 0
 199 000c 2A48     		ldr	r0, .L33+4
 200 000e FFF7FEFF 		bl	UART_1_UartPutString
 201              	.LVL17:
  72:.\main.c      ****     int i = 0;
 202              		.loc 1 72 0
 203 0012 0024     		mov	r4, #0
  78:.\main.c      ****     while(i < 5){
 204              		.loc 1 78 0
 205 0014 06E0     		b	.L30
 206              	.LVL18:
ARM GAS  C:\Users\egh35\AppData\Local\Temp\ccckhMba.s 			page 6


 207              	.L15:
  79:.\main.c      ****         verify = getButton();
 208              		.loc 1 79 0
 209 0016 FFF7FEFF 		bl	getButton
 210              	.LVL19:
  80:.\main.c      ****         if(verify > '0'){
 211              		.loc 1 80 0
 212 001a 3028     		cmp	r0, #48
 213 001c 02D9     		bls	.L30
  81:.\main.c      ****         combo1[i] = verify;
 214              		.loc 1 81 0
 215 001e 02AB     		add	r3, sp, #8
 216 0020 1855     		strb	r0, [r3, r4]
  82:.\main.c      ****         i++;
 217              		.loc 1 82 0
 218 0022 0134     		add	r4, r4, #1
 219              	.LVL20:
 220              	.L30:
  78:.\main.c      ****     while(i < 5){
 221              		.loc 1 78 0 discriminator 1
 222 0024 042C     		cmp	r4, #4
 223 0026 F6DD     		ble	.L15
  83:.\main.c      ****         }
  84:.\main.c      ****         
  85:.\main.c      ****     }
  86:.\main.c      ****     
  87:.\main.c      ****     UART_1_UartPutString("\n \r Enter code again to confirm:"); //second confirmation entry
 224              		.loc 1 87 0
 225 0028 2448     		ldr	r0, .L33+8
 226 002a FFF7FEFF 		bl	UART_1_UartPutString
 227              	.LVL21:
  88:.\main.c      ****     i = 0; 
 228              		.loc 1 88 0
 229 002e 0024     		mov	r4, #0
  89:.\main.c      ****     while(i < 5){
 230              		.loc 1 89 0
 231 0030 06E0     		b	.L31
 232              	.LVL22:
 233              	.L18:
  90:.\main.c      ****         verify = getButton();
 234              		.loc 1 90 0
 235 0032 FFF7FEFF 		bl	getButton
 236              	.LVL23:
  91:.\main.c      ****         if(verify > '0'){
 237              		.loc 1 91 0
 238 0036 3028     		cmp	r0, #48
 239 0038 02D9     		bls	.L31
  92:.\main.c      ****             combo2[i] = verify;
 240              		.loc 1 92 0
 241 003a 6B46     		mov	r3, sp
 242 003c 1855     		strb	r0, [r3, r4]
  93:.\main.c      ****             i++;
 243              		.loc 1 93 0
 244 003e 0134     		add	r4, r4, #1
 245              	.LVL24:
 246              	.L31:
  89:.\main.c      ****     while(i < 5){
ARM GAS  C:\Users\egh35\AppData\Local\Temp\ccckhMba.s 			page 7


 247              		.loc 1 89 0 discriminator 1
 248 0040 042C     		cmp	r4, #4
 249 0042 F6DD     		ble	.L18
 250 0044 0120     		mov	r0, #1
 251 0046 0023     		mov	r3, #0
  94:.\main.c      ****         }
  95:.\main.c      ****         
  96:.\main.c      ****     }
  97:.\main.c      ****     
  98:.\main.c      ****     i = 0; 
  99:.\main.c      ****     while(i < 5){
 100:.\main.c      ****         if(combo1[i] != combo2[i]){
 101:.\main.c      ****             isEqual = false;  
 252              		.loc 1 101 0
 253 0048 0024     		mov	r4, #0
 254              	.LVL25:
 255 004a 07E0     		b	.L19
 256              	.LVL26:
 257              	.L21:
 100:.\main.c      ****         if(combo1[i] != combo2[i]){
 258              		.loc 1 100 0
 259 004c 02AA     		add	r2, sp, #8
 260 004e D15C     		ldrb	r1, [r2, r3]
 261 0050 6D46     		mov	r5, sp
 262 0052 EA5C     		ldrb	r2, [r5, r3]
 263 0054 9142     		cmp	r1, r2
 264 0056 00D0     		beq	.L20
 265              		.loc 1 101 0
 266 0058 201C     		mov	r0, r4
 267              	.LVL27:
 268              	.L20:
 102:.\main.c      ****         }
 103:.\main.c      ****         i++;
 269              		.loc 1 103 0
 270 005a 0133     		add	r3, r3, #1
 271              	.LVL28:
 272              	.L19:
  99:.\main.c      ****     while(i < 5){
 273              		.loc 1 99 0 discriminator 1
 274 005c 042B     		cmp	r3, #4
 275 005e F5DD     		ble	.L21
 276              	.LVL29:
 104:.\main.c      ****     }
 105:.\main.c      ****     
 106:.\main.c      ****     i = 0; 
 107:.\main.c      ****     if( isEqual == true){
 277              		.loc 1 107 0
 278 0060 0028     		cmp	r0, #0
 279 0062 06D1     		bne	.L29
 280 0064 0AE0     		b	.L32
 281              	.LVL30:
 282              	.L24:
 108:.\main.c      **** 
 109:.\main.c      ****         while(i<5){
 110:.\main.c      ****             combo[i] =  combo1[i];
 283              		.loc 1 110 0
 284 0066 02AA     		add	r2, sp, #8
ARM GAS  C:\Users\egh35\AppData\Local\Temp\ccckhMba.s 			page 8


 285 0068 D15C     		ldrb	r1, [r2, r3]
 286 006a C218     		add	r2, r0, r3
 287 006c 1171     		strb	r1, [r2, #4]
 111:.\main.c      ****             i++;
 288              		.loc 1 111 0
 289 006e 0133     		add	r3, r3, #1
 290              	.LVL31:
 291 0070 01E0     		b	.L22
 292              	.LVL32:
 293              	.L29:
 294 0072 0023     		mov	r3, #0
 110:.\main.c      ****             combo[i] =  combo1[i];
 295              		.loc 1 110 0
 296 0074 0F48     		ldr	r0, .L33
 297              	.LVL33:
 298              	.L22:
 109:.\main.c      ****         while(i<5){
 299              		.loc 1 109 0 discriminator 1
 300 0076 042B     		cmp	r3, #4
 301 0078 F5DD     		ble	.L24
 302 007a 02E0     		b	.L25
 303              	.LVL34:
 304              	.L32:
 112:.\main.c      ****         }
 113:.\main.c      ****     }
 114:.\main.c      ****     else{
 115:.\main.c      ****             UART_1_UartPutString("\n \r Codes do not match. Exiting and keeping old code...");
 305              		.loc 1 115 0
 306 007c 1048     		ldr	r0, .L33+12
 307              	.LVL35:
 308 007e FFF7FEFF 		bl	UART_1_UartPutString
 309              	.LVL36:
 310              	.L25:
 116:.\main.c      ****         
 117:.\main.c      ****     }
 118:.\main.c      ****     
 119:.\main.c      **** UART_1_UartPutString("\n \r Code has been reset to ");
 311              		.loc 1 119 0
 312 0082 1048     		ldr	r0, .L33+16
 313 0084 FFF7FEFF 		bl	UART_1_UartPutString
 314              	.LVL37:
 120:.\main.c      ****     i = 0; 
 315              		.loc 1 120 0
 316 0088 0024     		mov	r4, #0
 121:.\main.c      ****     while(i<5){
 122:.\main.c      **** Printchar(combo[i]);
 317              		.loc 1 122 0
 318 008a 0A4D     		ldr	r5, .L33
 121:.\main.c      ****     while(i<5){
 319              		.loc 1 121 0
 320 008c 04E0     		b	.L26
 321              	.LVL38:
 322              	.L27:
 323              		.loc 1 122 0
 324 008e 2B19     		add	r3, r5, r4
 325 0090 1879     		ldrb	r0, [r3, #4]
 326 0092 FFF7FEFF 		bl	Printchar
ARM GAS  C:\Users\egh35\AppData\Local\Temp\ccckhMba.s 			page 9


 327              	.LVL39:
 123:.\main.c      ****         i++;
 328              		.loc 1 123 0
 329 0096 0134     		add	r4, r4, #1
 330              	.LVL40:
 331              	.L26:
 121:.\main.c      ****     while(i<5){
 332              		.loc 1 121 0 discriminator 1
 333 0098 042C     		cmp	r4, #4
 334 009a F8DD     		ble	.L27
 124:.\main.c      ****     }
 125:.\main.c      ****     
 126:.\main.c      ****     UART_1_UartPutString(" Don't forget to lock it again!");
 335              		.loc 1 126 0
 336 009c 0A48     		ldr	r0, .L33+20
 337 009e FFF7FEFF 		bl	UART_1_UartPutString
 338              	.LVL41:
 127:.\main.c      **** currentState = -1; 
 339              		.loc 1 127 0
 340 00a2 0122     		mov	r2, #1
 341 00a4 5242     		neg	r2, r2
 342 00a6 034B     		ldr	r3, .L33
 343 00a8 1A60     		str	r2, [r3]
 128:.\main.c      **** RED_LED_Write(1); 
 344              		.loc 1 128 0
 345 00aa 0120     		mov	r0, #1
 346 00ac FFF7FEFF 		bl	RED_LED_Write
 347              	.LVL42:
 129:.\main.c      ****     
 130:.\main.c      ****         
 131:.\main.c      ****         
 132:.\main.c      ****         
 133:.\main.c      ****         
 134:.\main.c      **** }
 348              		.loc 1 134 0
 349 00b0 05B0     		add	sp, sp, #20
 350              		@ sp needed
 351              	.LVL43:
 352 00b2 30BD     		pop	{r4, r5, pc}
 353              	.L34:
 354              		.align	2
 355              	.L33:
 356 00b4 00000000 		.word	.LANCHOR0
 357 00b8 08000000 		.word	.LC7
 358 00bc 18000000 		.word	.LC9
 359 00c0 3C000000 		.word	.LC11
 360 00c4 74000000 		.word	.LC13
 361 00c8 90000000 		.word	.LC15
 362              		.cfi_endproc
 363              	.LFE37:
 364              		.size	InitCode, .-InitCode
 365              		.section	.text.getCombination,"ax",%progbits
 366              		.align	2
 367              		.global	getCombination
 368              		.code	16
 369              		.thumb_func
 370              		.type	getCombination, %function
ARM GAS  C:\Users\egh35\AppData\Local\Temp\ccckhMba.s 			page 10


 371              	getCombination:
 372              	.LFB38:
 135:.\main.c      ****     
 136:.\main.c      **** 
 137:.\main.c      **** 
 138:.\main.c      **** 
 139:.\main.c      **** 
 140:.\main.c      **** 
 141:.\main.c      **** 
 142:.\main.c      **** 
 143:.\main.c      **** int getCombination(){
 373              		.loc 1 143 0
 374              		.cfi_startproc
 375 0000 70B5     		push	{r4, r5, r6, lr}
 376              		.cfi_def_cfa_offset 16
 377              		.cfi_offset 4, -16
 378              		.cfi_offset 5, -12
 379              		.cfi_offset 6, -8
 380              		.cfi_offset 14, -4
 144:.\main.c      ****     
 145:.\main.c      ****     
 146:.\main.c      ****  /* Our start state. */
 147:.\main.c      **** char input;
 148:.\main.c      **** 
 149:.\main.c      **** 
 150:.\main.c      **** 
 151:.\main.c      **** while(1){
 152:.\main.c      ****     /* Get button pushed by user via UART. */
 153:.\main.c      **** 
 154:.\main.c      ****     input = getButton();
 155:.\main.c      ****  
 156:.\main.c      ****     if(input == combo[0]){
 381              		.loc 1 156 0
 382 0002 2C4C     		ldr	r4, .L50
 157:.\main.c      ****         if(currentState == 0 ){
 383              		.loc 1 157 0
 384 0004 251C     		mov	r5, r4
 158:.\main.c      ****             tc = 0; //timer set to 0   
 385              		.loc 1 158 0
 386 0006 2C4E     		ldr	r6, .L50+4
 387              	.L43:
 154:.\main.c      ****     input = getButton();
 388              		.loc 1 154 0
 389 0008 FFF7FEFF 		bl	getButton
 390              	.LVL44:
 156:.\main.c      ****     if(input == combo[0]){
 391              		.loc 1 156 0
 392 000c 2379     		ldrb	r3, [r4, #4]
 393 000e 8342     		cmp	r3, r0
 394 0010 06D1     		bne	.L36
 157:.\main.c      ****         if(currentState == 0 ){
 395              		.loc 1 157 0
 396 0012 2B68     		ldr	r3, [r5]
 397 0014 002B     		cmp	r3, #0
 398 0016 43D1     		bne	.L44
 399              		.loc 1 158 0
 400 0018 3360     		str	r3, [r6]
ARM GAS  C:\Users\egh35\AppData\Local\Temp\ccckhMba.s 			page 11


 159:.\main.c      ****             currentState = 1; 
 401              		.loc 1 159 0
 402 001a 0122     		mov	r2, #1
 403 001c 254B     		ldr	r3, .L50
 404 001e 1A60     		str	r2, [r3]
 405              	.L36:
 160:.\main.c      ****           
 161:.\main.c      ****         }
 162:.\main.c      ****         else{
 163:.\main.c      ****         return 0; 
 164:.\main.c      ****         }
 165:.\main.c      ****        }
 166:.\main.c      ****     
 167:.\main.c      ****     if(input == combo[1]){
 406              		.loc 1 167 0
 407 0020 244B     		ldr	r3, .L50
 408 0022 5B79     		ldrb	r3, [r3, #5]
 409 0024 8342     		cmp	r3, r0
 410 0026 06D1     		bne	.L38
 168:.\main.c      ****         if(currentState == 1){
 411              		.loc 1 168 0
 412 0028 224B     		ldr	r3, .L50
 413 002a 1B68     		ldr	r3, [r3]
 414 002c 012B     		cmp	r3, #1
 415 002e 39D1     		bne	.L45
 169:.\main.c      ****             currentState = 2;
 416              		.loc 1 169 0
 417 0030 0222     		mov	r2, #2
 418 0032 204B     		ldr	r3, .L50
 419 0034 1A60     		str	r2, [r3]
 420              	.L38:
 170:.\main.c      ****         }
 171:.\main.c      ****         else{
 172:.\main.c      ****         return 0;
 173:.\main.c      ****         }
 174:.\main.c      ****     }
 175:.\main.c      ****         
 176:.\main.c      ****     if(input == combo[2]){
 421              		.loc 1 176 0
 422 0036 1F4B     		ldr	r3, .L50
 423 0038 9B79     		ldrb	r3, [r3, #6]
 424 003a 8342     		cmp	r3, r0
 425 003c 06D1     		bne	.L39
 177:.\main.c      ****         if(currentState == 2){
 426              		.loc 1 177 0
 427 003e 1D4B     		ldr	r3, .L50
 428 0040 1B68     		ldr	r3, [r3]
 429 0042 022B     		cmp	r3, #2
 430 0044 30D1     		bne	.L46
 178:.\main.c      ****             currentState = 3; 
 431              		.loc 1 178 0
 432 0046 0322     		mov	r2, #3
 433 0048 1A4B     		ldr	r3, .L50
 434 004a 1A60     		str	r2, [r3]
 435              	.L39:
 179:.\main.c      ****         }
 180:.\main.c      ****         else{
ARM GAS  C:\Users\egh35\AppData\Local\Temp\ccckhMba.s 			page 12


 181:.\main.c      ****         return 0; 
 182:.\main.c      ****         }
 183:.\main.c      ****     }
 184:.\main.c      ****         
 185:.\main.c      ****     if(input == combo[3]){
 436              		.loc 1 185 0
 437 004c 194B     		ldr	r3, .L50
 438 004e DB79     		ldrb	r3, [r3, #7]
 439 0050 8342     		cmp	r3, r0
 440 0052 06D1     		bne	.L40
 186:.\main.c      ****         if(currentState == 3){
 441              		.loc 1 186 0
 442 0054 174B     		ldr	r3, .L50
 443 0056 1B68     		ldr	r3, [r3]
 444 0058 032B     		cmp	r3, #3
 445 005a 27D1     		bne	.L47
 187:.\main.c      ****             currentState = 4; 
 446              		.loc 1 187 0
 447 005c 0422     		mov	r2, #4
 448 005e 154B     		ldr	r3, .L50
 449 0060 1A60     		str	r2, [r3]
 450              	.L40:
 188:.\main.c      ****         }
 189:.\main.c      ****         else{
 190:.\main.c      ****         return 0; 
 191:.\main.c      ****         }
 192:.\main.c      ****     }    
 193:.\main.c      **** 
 194:.\main.c      ****     if(input == combo[4]){
 451              		.loc 1 194 0
 452 0062 144B     		ldr	r3, .L50
 453 0064 1B7A     		ldrb	r3, [r3, #8]
 454 0066 8342     		cmp	r3, r0
 455 0068 05D1     		bne	.L41
 195:.\main.c      ****         if(currentState == 4){
 456              		.loc 1 195 0
 457 006a 124B     		ldr	r3, .L50
 458 006c 1B68     		ldr	r3, [r3]
 459 006e 042B     		cmp	r3, #4
 460 0070 1ED1     		bne	.L48
 196:.\main.c      ****             return 1;  
 461              		.loc 1 196 0
 462 0072 0120     		mov	r0, #1
 463              	.LVL45:
 464 0074 1DE0     		b	.L37
 465              	.LVL46:
 466              	.L41:
 197:.\main.c      ****             currentState = -1; 
 198:.\main.c      ****         }
 199:.\main.c      ****         else{
 200:.\main.c      ****         return 0; 
 201:.\main.c      ****         }
 202:.\main.c      ****     }
 203:.\main.c      ****     
 204:.\main.c      ****     if(tc > 50 & currentState > 0 ){
 467              		.loc 1 204 0
 468 0076 0122     		mov	r2, #1
ARM GAS  C:\Users\egh35\AppData\Local\Temp\ccckhMba.s 			page 13


 469 0078 0F4B     		ldr	r3, .L50+4
 470 007a 1B68     		ldr	r3, [r3]
 471 007c 322B     		cmp	r3, #50
 472 007e 00DC     		bgt	.L42
 473 0080 0022     		mov	r2, #0
 474              	.L42:
 475 0082 0C4B     		ldr	r3, .L50
 476 0084 1B68     		ldr	r3, [r3]
 477 0086 D917     		asr	r1, r3, #31
 478 0088 CB1A     		sub	r3, r1, r3
 479 008a DB0F     		lsr	r3, r3, #31
 480 008c 1342     		tst	r3, r2
 481 008e BBD0     		beq	.L43
 205:.\main.c      ****         UART_1_UartPutString("\n \r Out of time!");
 482              		.loc 1 205 0
 483 0090 0A48     		ldr	r0, .L50+8
 484              	.LVL47:
 485 0092 FFF7FEFF 		bl	UART_1_UartPutString
 486              	.LVL48:
 206:.\main.c      ****         tc = 0; 
 487              		.loc 1 206 0
 488 0096 0022     		mov	r2, #0
 489 0098 074B     		ldr	r3, .L50+4
 490 009a 1A60     		str	r2, [r3]
 207:.\main.c      ****         return 0;
 491              		.loc 1 207 0
 492 009c 0020     		mov	r0, #0
 493 009e 08E0     		b	.L37
 494              	.LVL49:
 495              	.L44:
 163:.\main.c      ****         return 0; 
 496              		.loc 1 163 0
 497 00a0 0020     		mov	r0, #0
 498              	.LVL50:
 499 00a2 06E0     		b	.L37
 500              	.LVL51:
 501              	.L45:
 172:.\main.c      ****         return 0;
 502              		.loc 1 172 0
 503 00a4 0020     		mov	r0, #0
 504              	.LVL52:
 505 00a6 04E0     		b	.L37
 506              	.LVL53:
 507              	.L46:
 181:.\main.c      ****         return 0; 
 508              		.loc 1 181 0
 509 00a8 0020     		mov	r0, #0
 510              	.LVL54:
 511 00aa 02E0     		b	.L37
 512              	.LVL55:
 513              	.L47:
 190:.\main.c      ****         return 0; 
 514              		.loc 1 190 0
 515 00ac 0020     		mov	r0, #0
 516              	.LVL56:
 517 00ae 00E0     		b	.L37
 518              	.LVL57:
ARM GAS  C:\Users\egh35\AppData\Local\Temp\ccckhMba.s 			page 14


 519              	.L48:
 200:.\main.c      ****         return 0; 
 520              		.loc 1 200 0
 521 00b0 0020     		mov	r0, #0
 522              	.LVL58:
 523              	.L37:
 208:.\main.c      ****     }
 209:.\main.c      **** 
 210:.\main.c      **** }
 211:.\main.c      **** }
 524              		.loc 1 211 0
 525              		@ sp needed
 526 00b2 70BD     		pop	{r4, r5, r6, pc}
 527              	.L51:
 528              		.align	2
 529              	.L50:
 530 00b4 00000000 		.word	.LANCHOR0
 531 00b8 00000000 		.word	.LANCHOR1
 532 00bc B0000000 		.word	.LC19
 533              		.cfi_endproc
 534              	.LFE38:
 535              		.size	getCombination, .-getCombination
 536              		.section	.text.main,"ax",%progbits
 537              		.align	2
 538              		.global	main
 539              		.code	16
 540              		.thumb_func
 541              		.type	main, %function
 542              	main:
 543              	.LFB39:
 212:.\main.c      **** 
 213:.\main.c      **** 
 214:.\main.c      ****     
 215:.\main.c      ****     
 216:.\main.c      ****     
 217:.\main.c      **** int main()
 218:.\main.c      **** {
 544              		.loc 1 218 0
 545              		.cfi_startproc
 546 0000 F8B5     		push	{r3, r4, r5, r6, r7, lr}
 547              		.cfi_def_cfa_offset 24
 548              		.cfi_offset 3, -24
 549              		.cfi_offset 4, -20
 550              		.cfi_offset 5, -16
 551              		.cfi_offset 6, -12
 552              		.cfi_offset 7, -8
 553              		.cfi_offset 14, -4
 554 0002 4F46     		mov	r7, r9
 555 0004 4646     		mov	r6, r8
 556 0006 C0B4     		push	{r6, r7}
 557              		.cfi_def_cfa_offset 32
 558              		.cfi_offset 8, -32
 559              		.cfi_offset 9, -28
 219:.\main.c      ****     
 220:.\main.c      **** CyGlobalIntDisable; /* Disable global interrupts. */    
 560              		.loc 1 220 0
 561              	@ 220 ".\main.c" 1
ARM GAS  C:\Users\egh35\AppData\Local\Temp\ccckhMba.s 			page 15


 562 0008 72B6     		CPSID   i
 563              	@ 0 "" 2
 221:.\main.c      **** timerISR_StartEx(timerISR);
 564              		.loc 1 221 0
 565              		.code	16
 566 000a 3248     		ldr	r0, .L66
 567 000c FFF7FEFF 		bl	timerISR_StartEx
 568              	.LVL59:
 222:.\main.c      ****     
 223:.\main.c      **** 
 224:.\main.c      **** CyGlobalIntEnable; /* Enable global interrupts. */
 569              		.loc 1 224 0
 570              	@ 224 ".\main.c" 1
 571 0010 62B6     		CPSIE   i
 572              	@ 0 "" 2
 225:.\main.c      **** Timer_1_Start(); 
 573              		.loc 1 225 0
 574              		.code	16
 575 0012 FFF7FEFF 		bl	Timer_1_Start
 576              	.LVL60:
 226:.\main.c      **** 
 227:.\main.c      **** int failed = 0; 
 228:.\main.c      **** int returnval = 0;     
 229:.\main.c      **** UART_1_Start();    
 577              		.loc 1 229 0
 578 0016 FFF7FEFF 		bl	UART_1_Start
 579              	.LVL61:
 230:.\main.c      **** UART_1_UartPutString("\n \r Combination Lock Program");
 580              		.loc 1 230 0
 581 001a 2F48     		ldr	r0, .L66+4
 582 001c FFF7FEFF 		bl	UART_1_UartPutString
 583              	.LVL62:
 231:.\main.c      **** UART_1_UartPutString("\n \r Stock Combination is ");
 584              		.loc 1 231 0
 585 0020 2E48     		ldr	r0, .L66+8
 586 0022 FFF7FEFF 		bl	UART_1_UartPutString
 587              	.LVL63:
 232:.\main.c      ****    int  i = 0; 
 588              		.loc 1 232 0
 589 0026 0024     		mov	r4, #0
 233:.\main.c      ****     while(i<5){
 234:.\main.c      **** Printchar(combo[i]);
 590              		.loc 1 234 0
 591 0028 2D4D     		ldr	r5, .L66+12
 233:.\main.c      ****     while(i<5){
 592              		.loc 1 233 0
 593 002a 04E0     		b	.L53
 594              	.LVL64:
 595              	.L54:
 596              		.loc 1 234 0
 597 002c 2B19     		add	r3, r5, r4
 598 002e 1879     		ldrb	r0, [r3, #4]
 599 0030 FFF7FEFF 		bl	Printchar
 600              	.LVL65:
 235:.\main.c      ****         i++;
 601              		.loc 1 235 0
 602 0034 0134     		add	r4, r4, #1
ARM GAS  C:\Users\egh35\AppData\Local\Temp\ccckhMba.s 			page 16


 603              	.LVL66:
 604              	.L53:
 233:.\main.c      ****     while(i<5){
 605              		.loc 1 233 0 discriminator 1
 606 0036 042C     		cmp	r4, #4
 607 0038 F8DD     		ble	.L54
 236:.\main.c      ****     }
 237:.\main.c      **** 
 238:.\main.c      **** RED_LED_Write(1);
 608              		.loc 1 238 0
 609 003a 0120     		mov	r0, #1
 610 003c FFF7FEFF 		bl	RED_LED_Write
 611              	.LVL67:
 239:.\main.c      **** 
 240:.\main.c      **** 
 241:.\main.c      **** char locked = '0'; 
 242:.\main.c      **** UART_1_UartPutString("\n \r Initial status: Unlocked. Press 1 to lock, or 2 to reset the code:");
 612              		.loc 1 242 0
 613 0040 2848     		ldr	r0, .L66+16
 614 0042 FFF7FEFF 		bl	UART_1_UartPutString
 615              	.LVL68:
 227:.\main.c      **** int failed = 0; 
 616              		.loc 1 227 0
 617 0046 0024     		mov	r4, #0
 618              	.LVL69:
 243:.\main.c      **** 
 244:.\main.c      **** 
 245:.\main.c      **** for(;;){
 246:.\main.c      **** 
 247:.\main.c      **** 
 248:.\main.c      ****     
 249:.\main.c      **** locked = getButton();
 250:.\main.c      **** if(failed >3){
 251:.\main.c      ****     break;
 252:.\main.c      **** }
 253:.\main.c      **** 
 254:.\main.c      **** 
 255:.\main.c      **** switch (locked){ //state if locked
 256:.\main.c      ****     case '1':
 257:.\main.c      ****     currentState = 0;
 619              		.loc 1 257 0
 620 0048 254A     		ldr	r2, .L66+12
 621 004a 9146     		mov	r9, r2
 258:.\main.c      ****     RED_LED_Write(100); //turns on LED 
 259:.\main.c      ****     UART_1_UartPutString("\n \r Locked. Enter in the code:");
 622              		.loc 1 259 0
 623 004c 264B     		ldr	r3, .L66+20
 624 004e 9846     		mov	r8, r3
 260:.\main.c      ****     for(;;){
 261:.\main.c      ****         returnval = getCombination();
 262:.\main.c      ****         if(returnval == 1){
 263:.\main.c      ****             locked = '0'; 
 264:.\main.c      ****             RED_LED_Write(1); //turn off LED 
 265:.\main.c      ****             currentState = -1; //reset lock state to unlocked, or -1 
 266:.\main.c      ****             UART_1_UartPutString("\n \r Unlocked! Press 1 to lock again, or 2 to reset the code:");
 267:.\main.c      ****             failed = 0; //failed attempts back to 0
 268:.\main.c      ****             break;
ARM GAS  C:\Users\egh35\AppData\Local\Temp\ccckhMba.s 			page 17


 269:.\main.c      ****         }
 270:.\main.c      ****         else{
 271:.\main.c      ****             failed++; //increment fail state 
 272:.\main.c      ****             if(failed > 3){
 273:.\main.c      ****             UART_1_UartPutString("\n \r You have failed 3 attempts. System is locked.");
 274:.\main.c      ****             break;
 275:.\main.c      ****             }
 276:.\main.c      ****         else{    
 277:.\main.c      ****         UART_1_UartPutString("\n \r Incorrect. Try again. Fail attempt ");
 625              		.loc 1 277 0
 626 0050 264F     		ldr	r7, .L66+24
 627              	.LVL70:
 628              	.L65:
 249:.\main.c      **** locked = getButton();
 629              		.loc 1 249 0
 630 0052 FFF7FEFF 		bl	getButton
 631              	.LVL71:
 250:.\main.c      **** if(failed >3){
 632              		.loc 1 250 0
 633 0056 032C     		cmp	r4, #3
 634 0058 37DC     		bgt	.L64
 255:.\main.c      **** switch (locked){ //state if locked
 635              		.loc 1 255 0
 636 005a 3128     		cmp	r0, #49
 637 005c 02D0     		beq	.L58
 638 005e 3228     		cmp	r0, #50
 639 0060 2DD0     		beq	.L59
 640 0062 F6E7     		b	.L65
 641              	.L58:
 257:.\main.c      ****     currentState = 0;
 642              		.loc 1 257 0
 643 0064 0023     		mov	r3, #0
 644 0066 4A46     		mov	r2, r9
 645 0068 1360     		str	r3, [r2]
 258:.\main.c      ****     RED_LED_Write(100); //turns on LED 
 646              		.loc 1 258 0
 647 006a 6420     		mov	r0, #100
 648              	.LVL72:
 649 006c FFF7FEFF 		bl	RED_LED_Write
 650              	.LVL73:
 259:.\main.c      ****     UART_1_UartPutString("\n \r Locked. Enter in the code:");
 651              		.loc 1 259 0
 652 0070 4046     		mov	r0, r8
 653 0072 FFF7FEFF 		bl	UART_1_UartPutString
 654              	.LVL74:
 278:.\main.c      **** 
 279:.\main.c      ****         PrintInt(failed);
 280:.\main.c      ****         UART_1_UartPutString("\n \r");
 655              		.loc 1 280 0
 656 0076 1E4E     		ldr	r6, .L66+28
 281:.\main.c      ****             }
 282:.\main.c      ****         currentState = 0; //reset lock state to beginning 
 657              		.loc 1 282 0
 658 0078 194D     		ldr	r5, .L66+12
 659              	.L63:
 261:.\main.c      ****         returnval = getCombination();
 660              		.loc 1 261 0
ARM GAS  C:\Users\egh35\AppData\Local\Temp\ccckhMba.s 			page 18


 661 007a FFF7FEFF 		bl	getCombination
 662              	.LVL75:
 262:.\main.c      ****         if(returnval == 1){
 663              		.loc 1 262 0
 664 007e 0128     		cmp	r0, #1
 665 0080 0AD1     		bne	.L60
 666              	.LVL76:
 264:.\main.c      ****             RED_LED_Write(1); //turn off LED 
 667              		.loc 1 264 0
 668 0082 FFF7FEFF 		bl	RED_LED_Write
 669              	.LVL77:
 265:.\main.c      ****             currentState = -1; //reset lock state to unlocked, or -1 
 670              		.loc 1 265 0
 671 0086 0122     		mov	r2, #1
 672 0088 5242     		neg	r2, r2
 673 008a 154B     		ldr	r3, .L66+12
 674 008c 1A60     		str	r2, [r3]
 266:.\main.c      ****             UART_1_UartPutString("\n \r Unlocked! Press 1 to lock again, or 2 to reset the code:");
 675              		.loc 1 266 0
 676 008e 1948     		ldr	r0, .L66+32
 677 0090 FFF7FEFF 		bl	UART_1_UartPutString
 678              	.LVL78:
 267:.\main.c      ****             failed = 0; //failed attempts back to 0
 679              		.loc 1 267 0
 680 0094 0024     		mov	r4, #0
 268:.\main.c      ****             break;
 681              		.loc 1 268 0
 682 0096 DCE7     		b	.L65
 683              	.LVL79:
 684              	.L60:
 271:.\main.c      ****             failed++; //increment fail state 
 685              		.loc 1 271 0
 686 0098 0134     		add	r4, r4, #1
 687              	.LVL80:
 272:.\main.c      ****             if(failed > 3){
 688              		.loc 1 272 0
 689 009a 032C     		cmp	r4, #3
 690 009c 03DD     		ble	.L62
 273:.\main.c      ****             UART_1_UartPutString("\n \r You have failed 3 attempts. System is locked.");
 691              		.loc 1 273 0
 692 009e 1648     		ldr	r0, .L66+36
 693              	.LVL81:
 694 00a0 FFF7FEFF 		bl	UART_1_UartPutString
 695              	.LVL82:
 274:.\main.c      ****             break;
 696              		.loc 1 274 0
 697 00a4 D5E7     		b	.L65
 698              	.LVL83:
 699              	.L62:
 277:.\main.c      ****         UART_1_UartPutString("\n \r Incorrect. Try again. Fail attempt ");
 700              		.loc 1 277 0
 701 00a6 381C     		mov	r0, r7
 702              	.LVL84:
 703 00a8 FFF7FEFF 		bl	UART_1_UartPutString
 704              	.LVL85:
 279:.\main.c      ****         PrintInt(failed);
 705              		.loc 1 279 0
ARM GAS  C:\Users\egh35\AppData\Local\Temp\ccckhMba.s 			page 19


 706 00ac 201C     		mov	r0, r4
 707 00ae FFF7FEFF 		bl	PrintInt
 708              	.LVL86:
 280:.\main.c      ****         UART_1_UartPutString("\n \r");
 709              		.loc 1 280 0
 710 00b2 301C     		mov	r0, r6
 711 00b4 FFF7FEFF 		bl	UART_1_UartPutString
 712              	.LVL87:
 713              		.loc 1 282 0
 714 00b8 0023     		mov	r3, #0
 715 00ba 2B60     		str	r3, [r5]
 283:.\main.c      **** 
 284:.\main.c      ****         }
 285:.\main.c      ****     }
 716              		.loc 1 285 0
 717 00bc DDE7     		b	.L63
 718              	.LVL88:
 719              	.L59:
 286:.\main.c      ****     break;
 287:.\main.c      **** 
 288:.\main.c      ****     
 289:.\main.c      ****     case '2':
 290:.\main.c      ****     UART_1_UartPutString("\n \r Code Reset. Enter in your new code:");
 720              		.loc 1 290 0
 721 00be 0F48     		ldr	r0, .L66+40
 722              	.LVL89:
 723 00c0 FFF7FEFF 		bl	UART_1_UartPutString
 724              	.LVL90:
 291:.\main.c      ****     InitCode();
 725              		.loc 1 291 0
 726 00c4 FFF7FEFF 		bl	InitCode
 727              	.LVL91:
 292:.\main.c      ****     break;
 728              		.loc 1 292 0
 729 00c8 C3E7     		b	.L65
 730              	.LVL92:
 731              	.L64:
 732              	.LVL93:
 293:.\main.c      ****     
 294:.\main.c      ****     
 295:.\main.c      ****     default:
 296:.\main.c      ****     
 297:.\main.c      ****     break;
 298:.\main.c      ****     
 299:.\main.c      ****     
 300:.\main.c      ****     
 301:.\main.c      **** }
 302:.\main.c      **** }
 303:.\main.c      **** 
 304:.\main.c      **** 
 305:.\main.c      ****     
 306:.\main.c      **** 
 307:.\main.c      **** 
 308:.\main.c      **** 
 309:.\main.c      **** 
 310:.\main.c      **** 
 311:.\main.c      **** 
ARM GAS  C:\Users\egh35\AppData\Local\Temp\ccckhMba.s 			page 20


 312:.\main.c      **** 
 313:.\main.c      ****     
 314:.\main.c      ****     
 315:.\main.c      ****     
 316:.\main.c      ****     
 317:.\main.c      ****     
 318:.\main.c      ****     
 319:.\main.c      **** }
 733              		.loc 1 319 0
 734              		@ sp needed
 735              	.LVL94:
 736 00ca 0CBC     		pop	{r2, r3}
 737 00cc 9046     		mov	r8, r2
 738 00ce 9946     		mov	r9, r3
 739 00d0 F8BD     		pop	{r3, r4, r5, r6, r7, pc}
 740              	.L67:
 741 00d2 C046     		.align	2
 742              	.L66:
 743 00d4 00000000 		.word	timerISR
 744 00d8 C4000000 		.word	.LC22
 745 00dc E4000000 		.word	.LC24
 746 00e0 00000000 		.word	.LANCHOR0
 747 00e4 00010000 		.word	.LC27
 748 00e8 48010000 		.word	.LC29
 749 00ec DC010000 		.word	.LC35
 750 00f0 04020000 		.word	.LC37
 751 00f4 68010000 		.word	.LC31
 752 00f8 A8010000 		.word	.LC33
 753 00fc 08020000 		.word	.LC39
 754              		.cfi_endproc
 755              	.LFE39:
 756              		.size	main, .-main
 757              		.global	tc
 758              		.global	disable_entry
 759              		.global	currentState
 760              		.global	combo
 761              		.data
 762              		.align	2
 763              		.set	.LANCHOR0,. + 0
 764              		.type	currentState, %object
 765              		.size	currentState, 4
 766              	currentState:
 767 0000 FFFFFFFF 		.word	-1
 768              		.type	combo, %object
 769              		.size	combo, 5
 770              	combo:
 771 0004 31       		.byte	49
 772 0005 32       		.byte	50
 773 0006 33       		.byte	51
 774 0007 34       		.byte	52
 775 0008 35       		.byte	53
 776 0009 000000   		.section	.rodata.str1.4,"aMS",%progbits,1
 777              		.align	2
 778              	.LC2:
 779 0000 256400   		.ascii	"%d\000"
 780 0003 00       		.space	1
 781              	.LC4:
ARM GAS  C:\Users\egh35\AppData\Local\Temp\ccckhMba.s 			page 21


 782 0004 256300   		.ascii	"%c\000"
 783 0007 00       		.space	1
 784              	.LC7:
 785 0008 0A200D20 		.ascii	"\012 \015 Enter code:\000"
 785      456E7465 
 785      7220636F 
 785      64653A00 
 786              	.LC9:
 787 0018 0A200D20 		.ascii	"\012 \015 Enter code again to confirm:\000"
 787      456E7465 
 787      7220636F 
 787      64652061 
 787      6761696E 
 788 0039 000000   		.space	3
 789              	.LC11:
 790 003c 0A200D20 		.ascii	"\012 \015 Codes do not match. Exiting and keeping o"
 790      436F6465 
 790      7320646F 
 790      206E6F74 
 790      206D6174 
 791 0069 6C642063 		.ascii	"ld code...\000"
 791      6F64652E 
 791      2E2E00
 792              	.LC13:
 793 0074 0A200D20 		.ascii	"\012 \015 Code has been reset to \000"
 793      436F6465 
 793      20686173 
 793      20626565 
 793      6E207265 
 794              	.LC15:
 795 0090 20446F6E 		.ascii	" Don't forget to lock it again!\000"
 795      27742066 
 795      6F726765 
 795      7420746F 
 795      206C6F63 
 796              	.LC19:
 797 00b0 0A200D20 		.ascii	"\012 \015 Out of time!\000"
 797      4F757420 
 797      6F662074 
 797      696D6521 
 797      00
 798 00c1 000000   		.space	3
 799              	.LC22:
 800 00c4 0A200D20 		.ascii	"\012 \015 Combination Lock Program\000"
 800      436F6D62 
 800      696E6174 
 800      696F6E20 
 800      4C6F636B 
 801 00e1 000000   		.space	3
 802              	.LC24:
 803 00e4 0A200D20 		.ascii	"\012 \015 Stock Combination is \000"
 803      53746F63 
 803      6B20436F 
 803      6D62696E 
 803      6174696F 
 804 00fe 0000     		.space	2
 805              	.LC27:
ARM GAS  C:\Users\egh35\AppData\Local\Temp\ccckhMba.s 			page 22


 806 0100 0A200D20 		.ascii	"\012 \015 Initial status: Unlocked. Press 1 to lock"
 806      496E6974 
 806      69616C20 
 806      73746174 
 806      75733A20 
 807 012d 2C206F72 		.ascii	", or 2 to reset the code:\000"
 807      20322074 
 807      6F207265 
 807      73657420 
 807      74686520 
 808 0147 00       		.space	1
 809              	.LC29:
 810 0148 0A200D20 		.ascii	"\012 \015 Locked. Enter in the code:\000"
 810      4C6F636B 
 810      65642E20 
 810      456E7465 
 810      7220696E 
 811 0167 00       		.space	1
 812              	.LC31:
 813 0168 0A200D20 		.ascii	"\012 \015 Unlocked! Press 1 to lock again, or 2 to "
 813      556E6C6F 
 813      636B6564 
 813      21205072 
 813      65737320 
 814 0195 72657365 		.ascii	"reset the code:\000"
 814      74207468 
 814      6520636F 
 814      64653A00 
 815 01a5 000000   		.space	3
 816              	.LC33:
 817 01a8 0A200D20 		.ascii	"\012 \015 You have failed 3 attempts. System is loc"
 817      596F7520 
 817      68617665 
 817      20666169 
 817      6C656420 
 818 01d5 6B65642E 		.ascii	"ked.\000"
 818      00
 819 01da 0000     		.space	2
 820              	.LC35:
 821 01dc 0A200D20 		.ascii	"\012 \015 Incorrect. Try again. Fail attempt \000"
 821      496E636F 
 821      72726563 
 821      742E2054 
 821      72792061 
 822              	.LC37:
 823 0204 0A200D00 		.ascii	"\012 \015\000"
 824              	.LC39:
 825 0208 0A200D20 		.ascii	"\012 \015 Code Reset. Enter in your new code:\000"
 825      436F6465 
 825      20526573 
 825      65742E20 
 825      456E7465 
 826              		.bss
 827              		.align	2
 828              		.set	.LANCHOR1,. + 0
 829              		.type	tc, %object
 830              		.size	tc, 4
ARM GAS  C:\Users\egh35\AppData\Local\Temp\ccckhMba.s 			page 23


 831              	tc:
 832 0000 00000000 		.space	4
 833              		.type	disable_entry, %object
 834              		.size	disable_entry, 1
 835              	disable_entry:
 836 0004 00       		.space	1
 837 0005 000000   		.text
 838              	.Letext0:
 839              		.file 2 "Generated_Source\\PSoC4/cytypes.h"
 840              		.file 3 "Generated_Source\\PSoC4/RED_LED.h"
 841              		.file 4 "Generated_Source\\PSoC4/Timer_1.h"
 842              		.file 5 "Generated_Source\\PSoC4/UART_1_SPI_UART.h"
 843              		.file 6 "Generated_Source\\PSoC4/timerISR.h"
 844              		.file 7 "Generated_Source\\PSoC4/UART_1.h"
 845              		.file 8 "c:\\program files (x86)\\cypress\\psoc creator\\3.2\\psoc creator\\import\\gnu\\arm\\4.8.