ARM GAS  C:\Users\egh35\AppData\Local\Temp\ccoGNQi4.s 			page 1


   1              		.cpu cortex-m0
   2              		.fpu softvfp
   3              		.eabi_attribute 20, 1
   4              		.eabi_attribute 21, 1
   5              		.eabi_attribute 23, 3
   6              		.eabi_attribute 24, 1
   7              		.eabi_attribute 25, 1
   8              		.eabi_attribute 26, 1
   9              		.eabi_attribute 30, 1
  10              		.eabi_attribute 34, 0
  11              		.eabi_attribute 18, 4
  12              		.code	16
  13              		.file	"main.c"
  14              		.text
  15              	.Ltext0:
  16              		.cfi_sections	.debug_frame
  17              		.global	__aeabi_idivmod
  18              		.section	.text.CheckSum,"ax",%progbits
  19              		.align	2
  20              		.global	CheckSum
  21              		.code	16
  22              		.thumb_func
  23              		.type	CheckSum, %function
  24              	CheckSum:
  25              	.LFB33:
  26              		.file 1 ".\\main.c"
   1:.\main.c      **** /* ========================================
   2:.\main.c      ****  *
   3:.\main.c      ****  * Copyright YOUR COMPANY, THE YEAR
   4:.\main.c      ****  * All Rights Reserved
   5:.\main.c      ****  * UNPUBLISHED, LICENSED SOFTWARE.
   6:.\main.c      ****  *
   7:.\main.c      ****  * CONFIDENTIAL AND PROPRIETARY INFORMATION
   8:.\main.c      ****  * WHICH IS THE PROPERTY OF your company.
   9:.\main.c      ****  *
  10:.\main.c      ****  * ========================================
  11:.\main.c      **** */
  12:.\main.c      **** #include <project.h>
  13:.\main.c      **** #include <stdio.h>
  14:.\main.c      **** 
  15:.\main.c      **** void CheckSum(int *ch){
  27              		.loc 1 15 0
  28              		.cfi_startproc
  29              	.LVL0:
  30 0000 F8B5     		push	{r3, r4, r5, r6, r7, lr}
  31              		.cfi_def_cfa_offset 24
  32              		.cfi_offset 3, -24
  33              		.cfi_offset 4, -20
  34              		.cfi_offset 5, -16
  35              		.cfi_offset 6, -12
  36              		.cfi_offset 7, -8
  37              		.cfi_offset 14, -4
  38 0002 4F46     		mov	r7, r9
  39 0004 4646     		mov	r6, r8
  40 0006 C0B4     		push	{r6, r7}
  41              		.cfi_def_cfa_offset 32
  42              		.cfi_offset 8, -32
ARM GAS  C:\Users\egh35\AppData\Local\Temp\ccoGNQi4.s 			page 2


  43              		.cfi_offset 9, -28
  44 0008 061C     		mov	r6, r0
  45              	.LVL1:
  16:.\main.c      ****     
  17:.\main.c      ****     int acc = 0;
  18:.\main.c      ****     int *strpt1 = ch;
  46              		.loc 1 18 0
  47 000a 041C     		mov	r4, r0
  17:.\main.c      ****     int acc = 0;
  48              		.loc 1 17 0
  49 000c 0025     		mov	r5, #0
  19:.\main.c      ****     int dblvar = 0;
  20:.\main.c      ****     int c_sum[20];
  21:.\main.c      ****     int adv = 0;  
  22:.\main.c      ****     
  23:.\main.c      ****     
  24:.\main.c      ****     while(*strpt1 != 0){ 
  25:.\main.c      ****     
  26:.\main.c      ****         // odd digit case - modulus 
  27:.\main.c      ****     if(((strpt1-ch) % 2) == 1){
  50              		.loc 1 27 0
  51 000e 0127     		mov	r7, #1
  28:.\main.c      ****         
  29:.\main.c      ****         dblvar = (*strpt1-48) *2; //multiply by 2 
  30:.\main.c      ****         if(dblvar >= 10){ //if greater than 10, subtract 10 add 1 
  31:.\main.c      ****         dblvar = dblvar - 10 + 1;
  32:.\main.c      ****         //PrintInt(dblvar);
  33:.\main.c      ****         UART_1_UartPutString(" ");
  34:.\main.c      ****         }
  35:.\main.c      ****         acc+= dblvar; //accumulator variable adds result
  36:.\main.c      ****                    
  37:.\main.c      ****         }
  38:.\main.c      ****         
  39:.\main.c      ****     else{
  40:.\main.c      ****         acc+= *strpt1 - 48;
  41:.\main.c      ****         //PrintInt(*strpt1 - 48);
  42:.\main.c      ****         UART_1_UartPutString(" ");
  52              		.loc 1 42 0
  53 0010 184B     		ldr	r3, .L9
  54 0012 9846     		mov	r8, r3
  24:.\main.c      ****     while(*strpt1 != 0){ 
  55              		.loc 1 24 0
  56 0014 1AE0     		b	.L2
  57              	.LVL2:
  58              	.L6:
  27:.\main.c      ****     if(((strpt1-ch) % 2) == 1){
  59              		.loc 1 27 0
  60 0016 A21B     		sub	r2, r4, r6
  61 0018 9110     		asr	r1, r2, #2
  62 001a D20F     		lsr	r2, r2, #31
  63 001c 8918     		add	r1, r1, r2
  64 001e 3940     		and	r1, r7
  65 0020 8A1A     		sub	r2, r1, r2
  66 0022 012A     		cmp	r2, #1
  67 0024 0CD1     		bne	.L3
  29:.\main.c      ****         dblvar = (*strpt1-48) *2; //multiply by 2 
  68              		.loc 1 29 0
ARM GAS  C:\Users\egh35\AppData\Local\Temp\ccoGNQi4.s 			page 3


  69 0026 303B     		sub	r3, r3, #48
  70 0028 5B00     		lsl	r3, r3, #1
  71 002a 9946     		mov	r9, r3
  72              	.LVL3:
  30:.\main.c      ****         if(dblvar >= 10){ //if greater than 10, subtract 10 add 1 
  73              		.loc 1 30 0
  74 002c 092B     		cmp	r3, #9
  75 002e 05DD     		ble	.L4
  31:.\main.c      ****         dblvar = dblvar - 10 + 1;
  76              		.loc 1 31 0
  77 0030 0923     		mov	r3, #9
  78              	.LVL4:
  79 0032 5B42     		neg	r3, r3
  80 0034 9944     		add	r9, r9, r3
  81              	.LVL5:
  33:.\main.c      ****         UART_1_UartPutString(" ");
  82              		.loc 1 33 0
  83 0036 0F48     		ldr	r0, .L9
  84 0038 FFF7FEFF 		bl	UART_1_UartPutString
  85              	.LVL6:
  86              	.L4:
  35:.\main.c      ****         acc+= dblvar; //accumulator variable adds result
  87              		.loc 1 35 0
  88 003c 4D44     		add	r5, r5, r9
  89              	.LVL7:
  90 003e 04E0     		b	.L5
  91              	.LVL8:
  92              	.L3:
  40:.\main.c      ****         acc+= *strpt1 - 48;
  93              		.loc 1 40 0
  94 0040 303B     		sub	r3, r3, #48
  95 0042 ED18     		add	r5, r5, r3
  96              	.LVL9:
  97              		.loc 1 42 0
  98 0044 4046     		mov	r0, r8
  99 0046 FFF7FEFF 		bl	UART_1_UartPutString
 100              	.LVL10:
 101              	.L5:
  43:.\main.c      ****         
  44:.\main.c      ****     }
  45:.\main.c      ****     strpt1++;     
 102              		.loc 1 45 0
 103 004a 0434     		add	r4, r4, #4
 104              	.LVL11:
 105              	.L2:
  24:.\main.c      ****     while(*strpt1 != 0){ 
 106              		.loc 1 24 0 discriminator 1
 107 004c 2368     		ldr	r3, [r4]
 108 004e 002B     		cmp	r3, #0
 109 0050 E1D1     		bne	.L6
  46:.\main.c      ****         
  47:.\main.c      ****     }
  48:.\main.c      ****     
  49:.\main.c      ****     
  50:.\main.c      ****     if(acc % 10 == 0){
 110              		.loc 1 50 0
 111 0052 281C     		mov	r0, r5
ARM GAS  C:\Users\egh35\AppData\Local\Temp\ccoGNQi4.s 			page 4


 112 0054 0A21     		mov	r1, #10
 113 0056 FFF7FEFF 		bl	__aeabi_idivmod
 114              	.LVL12:
 115 005a 0029     		cmp	r1, #0
 116 005c 03D1     		bne	.L7
  51:.\main.c      ****     UART_1_UartPutString("\n \r The number is valid. ");    
 117              		.loc 1 51 0
 118 005e 0648     		ldr	r0, .L9+4
 119 0060 FFF7FEFF 		bl	UART_1_UartPutString
 120              	.LVL13:
 121 0064 02E0     		b	.L1
 122              	.L7:
  52:.\main.c      ****     }
  53:.\main.c      ****     else{
  54:.\main.c      ****      UART_1_UartPutString("\n \r The number is not valid. ");    
 123              		.loc 1 54 0
 124 0066 0548     		ldr	r0, .L9+8
 125 0068 FFF7FEFF 		bl	UART_1_UartPutString
 126              	.LVL14:
 127              	.L1:
  55:.\main.c      ****     }
  56:.\main.c      ****     
  57:.\main.c      ****     
  58:.\main.c      **** }
 128              		.loc 1 58 0
 129              		@ sp needed
 130              	.LVL15:
 131              	.LVL16:
 132              	.LVL17:
 133 006c 0CBC     		pop	{r2, r3}
 134 006e 9046     		mov	r8, r2
 135 0070 9946     		mov	r9, r3
 136 0072 F8BD     		pop	{r3, r4, r5, r6, r7, pc}
 137              	.L10:
 138              		.align	2
 139              	.L9:
 140 0074 00000000 		.word	.LC0
 141 0078 04000000 		.word	.LC2
 142 007c 20000000 		.word	.LC4
 143              		.cfi_endproc
 144              	.LFE33:
 145              		.size	CheckSum, .-CheckSum
 146              		.section	.text.PrintInt,"ax",%progbits
 147              		.align	2
 148              		.global	PrintInt
 149              		.code	16
 150              		.thumb_func
 151              		.type	PrintInt, %function
 152              	PrintInt:
 153              	.LFB34:
  59:.\main.c      **** 
  60:.\main.c      **** void PrintInt(int b){
 154              		.loc 1 60 0
 155              		.cfi_startproc
 156              	.LVL18:
 157 0000 00B5     		push	{lr}
 158              		.cfi_def_cfa_offset 4
ARM GAS  C:\Users\egh35\AppData\Local\Temp\ccoGNQi4.s 			page 5


 159              		.cfi_offset 14, -4
 160 0002 85B0     		sub	sp, sp, #20
 161              		.cfi_def_cfa_offset 24
 162 0004 021C     		mov	r2, r0
  61:.\main.c      ****     char buf[10];
  62:.\main.c      ****     sprintf(buf, "%d", b); 
 163              		.loc 1 62 0
 164 0006 01A8     		add	r0, sp, #4
 165              	.LVL19:
 166 0008 0349     		ldr	r1, .L12
 167 000a FFF7FEFF 		bl	sprintf
 168              	.LVL20:
  63:.\main.c      ****     UART_1_UartPutString(buf);
 169              		.loc 1 63 0
 170 000e 01A8     		add	r0, sp, #4
 171 0010 FFF7FEFF 		bl	UART_1_UartPutString
 172              	.LVL21:
  64:.\main.c      **** 
  65:.\main.c      **** }
 173              		.loc 1 65 0
 174 0014 05B0     		add	sp, sp, #20
 175              		@ sp needed
 176 0016 00BD     		pop	{pc}
 177              	.L13:
 178              		.align	2
 179              	.L12:
 180 0018 40000000 		.word	.LC6
 181              		.cfi_endproc
 182              	.LFE34:
 183              		.size	PrintInt, .-PrintInt
 184              		.section	.text.readString,"ax",%progbits
 185              		.align	2
 186              		.global	readString
 187              		.code	16
 188              		.thumb_func
 189              		.type	readString, %function
 190              	readString:
 191              	.LFB35:
  66:.\main.c      **** 
  67:.\main.c      **** 
  68:.\main.c      **** void readString(int *buffer)
  69:.\main.c      **** {
 192              		.loc 1 69 0
 193              		.cfi_startproc
 194              	.LVL22:
 195 0000 38B5     		push	{r3, r4, r5, lr}
 196              		.cfi_def_cfa_offset 16
 197              		.cfi_offset 3, -16
 198              		.cfi_offset 4, -12
 199              		.cfi_offset 5, -8
 200              		.cfi_offset 14, -4
 201 0002 051C     		mov	r5, r0
 202              	.LVL23:
 203              	.L18:
  70:.\main.c      **** uint32 rxData;
  71:.\main.c      **** int *ptr = buffer;
  72:.\main.c      ****     
ARM GAS  C:\Users\egh35\AppData\Local\Temp\ccoGNQi4.s 			page 6


  73:.\main.c      **** for(;;){
  74:.\main.c      ****     rxData = UART_1_UartGetChar();
 204              		.loc 1 74 0
 205 0004 FFF7FEFF 		bl	UART_1_UartGetChar
 206              	.LVL24:
 207 0008 041E     		sub	r4, r0, #0
 208              	.LVL25:
  75:.\main.c      ****     if(rxData){
 209              		.loc 1 75 0
 210 000a FBD0     		beq	.L18
  76:.\main.c      ****         UART_1_UartPutChar(rxData); /* Echo character. */
 211              		.loc 1 76 0
 212 000c FFF7FEFF 		bl	UART_1_SpiUartWriteTxData
 213              	.LVL26:
  77:.\main.c      ****         /* On a carriage return, null terminate the string
  78:.\main.c      ****         and break out of the loop. */
  79:.\main.c      ****         if(rxData == 13){
 214              		.loc 1 79 0
 215 0010 0D2C     		cmp	r4, #13
 216 0012 02D1     		bne	.L16
  80:.\main.c      ****         *ptr = 0;
 217              		.loc 1 80 0
 218 0014 0023     		mov	r3, #0
 219 0016 2B60     		str	r3, [r5]
 220 0018 01E0     		b	.L19
 221              	.L16:
  81:.\main.c      ****         break;
  82:.\main.c      ****         }
  83:.\main.c      **** *ptr = rxData;
 222              		.loc 1 83 0
 223 001a 10C5     		stmia	r5!, {r4}
 224              	.LVL27:
 225 001c F2E7     		b	.L18
 226              	.L19:
  84:.\main.c      **** ptr++;
  85:.\main.c      **** }
  86:.\main.c      **** }
  87:.\main.c      **** }
 227              		.loc 1 87 0
 228              		@ sp needed
 229              	.LVL28:
 230              	.LVL29:
 231 001e 38BD     		pop	{r3, r4, r5, pc}
 232              		.cfi_endproc
 233              	.LFE35:
 234              		.size	readString, .-readString
 235              		.section	.text.main,"ax",%progbits
 236              		.align	2
 237              		.global	main
 238              		.code	16
 239              		.thumb_func
 240              		.type	main, %function
 241              	main:
 242              	.LFB36:
  88:.\main.c      **** 
  89:.\main.c      **** 
  90:.\main.c      **** int main()
ARM GAS  C:\Users\egh35\AppData\Local\Temp\ccoGNQi4.s 			page 7


  91:.\main.c      **** {
 243              		.loc 1 91 0
 244              		.cfi_startproc
 245 0000 10B5     		push	{r4, lr}
 246              		.cfi_def_cfa_offset 8
 247              		.cfi_offset 4, -8
 248              		.cfi_offset 14, -4
 249 0002 94B0     		sub	sp, sp, #80
 250              		.cfi_def_cfa_offset 88
  92:.\main.c      ****     CyGlobalIntEnable;      /* Enable global interrupts */
 251              		.loc 1 92 0
 252              	@ 92 ".\main.c" 1
 253 0004 62B6     		CPSIE   i
 254              	@ 0 "" 2
  93:.\main.c      ****     UART_1_Start(); /* Start the UART component. */
 255              		.loc 1 93 0
 256              		.code	16
 257 0006 FFF7FEFF 		bl	UART_1_Start
 258              	.LVL30:
  94:.\main.c      ****     int choice[20];
  95:.\main.c      ****     
  96:.\main.c      ****     /* Place your initialization/startup code here (e.g. MyInst_Start()) */
  97:.\main.c      ****     while(choice){
  98:.\main.c      ****         
  99:.\main.c      ****     UART_1_UartPutString("\n \r Enter the number you'd like to check with the formula: ");
 259              		.loc 1 99 0
 260 000a 054C     		ldr	r4, .L22
 261              	.L21:
 262              		.loc 1 99 0 is_stmt 0 discriminator 1
 263 000c 201C     		mov	r0, r4
 264 000e FFF7FEFF 		bl	UART_1_UartPutString
 265              	.LVL31:
 100:.\main.c      ****     readString(choice); //take in address of choice variable, set it to what user enters
 266              		.loc 1 100 0 is_stmt 1 discriminator 1
 267 0012 6846     		mov	r0, sp
 268 0014 FFF7FEFF 		bl	readString
 269              	.LVL32:
 101:.\main.c      ****     CheckSum(choice); 
 270              		.loc 1 101 0 discriminator 1
 271 0018 6846     		mov	r0, sp
 272 001a FFF7FEFF 		bl	CheckSum
 273              	.LVL33:
 274 001e F5E7     		b	.L21
 275              	.L23:
 276              		.align	2
 277              	.L22:
 278 0020 44000000 		.word	.LC8
 279              		.cfi_endproc
 280              	.LFE36:
 281              		.size	main, .-main
 282              		.section	.rodata.str1.4,"aMS",%progbits,1
 283              		.align	2
 284              	.LC0:
 285 0000 2000     		.ascii	" \000"
 286 0002 0000     		.space	2
 287              	.LC2:
 288 0004 0A200D20 		.ascii	"\012 \015 The number is valid. \000"
ARM GAS  C:\Users\egh35\AppData\Local\Temp\ccoGNQi4.s 			page 8


 288      54686520 
 288      6E756D62 
 288      65722069 
 288      73207661 
 289 001e 0000     		.space	2
 290              	.LC4:
 291 0020 0A200D20 		.ascii	"\012 \015 The number is not valid. \000"
 291      54686520 
 291      6E756D62 
 291      65722069 
 291      73206E6F 
 292 003e 0000     		.space	2
 293              	.LC6:
 294 0040 256400   		.ascii	"%d\000"
 295 0043 00       		.space	1
 296              	.LC8:
 297 0044 0A200D20 		.ascii	"\012 \015 Enter the number you'd like to check with"
 297      456E7465 
 297      72207468 
 297      65206E75 
 297      6D626572 
 298 0071 20746865 		.ascii	" the formula: \000"
 298      20666F72 
 298      6D756C61 
 298      3A2000
 299              		.text
 300              	.Letext0:
 301              		.file 2 "Generated_Source\\PSoC4/cytypes.h"
 302              		.file 3 "Generated_Source\\PSoC4/UART_1_SPI_UART.h"
 303              		.file 4 "c:\\program files (x86)\\cypress\\psoc creator\\3.2\\psoc creator\\import\\gnu\\arm\\4.8.
 304              		.file 5 "Generated_Source\\PSoC4/UART_1.h"